	.text
	.file	"Plane.cpp"
	.section	.text.startup,"ax",@progbits
	.p2align	4, 0x90         # -- Begin function __cxx_global_var_init
	.type	__cxx_global_var_init,@function
__cxx_global_var_init:                  # @__cxx_global_var_init
	.cfi_startproc
# %bb.0:
	pushq	%rbp
	.cfi_def_cfa_offset 16
	.cfi_offset %rbp, -16
	movq	%rsp, %rbp
	.cfi_def_cfa_register %rbp
	leaq	_ZStL8__ioinit(%rip), %rdi
	callq	_ZNSt8ios_base4InitC1Ev@PLT
	movq	_ZNSt8ios_base4InitD1Ev@GOTPCREL(%rip), %rax
	movq	%rax, %rdi
	leaq	_ZStL8__ioinit(%rip), %rsi
	leaq	__dso_handle(%rip), %rdx
	callq	__cxa_atexit@PLT
	popq	%rbp
	.cfi_def_cfa %rsp, 8
	retq
.Lfunc_end0:
	.size	__cxx_global_var_init, .Lfunc_end0-__cxx_global_var_init
	.cfi_endproc
                                        # -- End function
	.text
	.globl	_ZN5PlaneC2EbRKS_       # -- Begin function _ZN5PlaneC2EbRKS_
	.p2align	4, 0x90
	.type	_ZN5PlaneC2EbRKS_,@function
_ZN5PlaneC2EbRKS_:                      # @_ZN5PlaneC2EbRKS_
.Lfunc_begin0:
	.cfi_startproc
	.cfi_personality 155, DW.ref.__gxx_personality_v0
	.cfi_lsda 27, .Lexception0
# %bb.0:
	pushq	%rbp
	.cfi_def_cfa_offset 16
	.cfi_offset %rbp, -16
	movq	%rsp, %rbp
	.cfi_def_cfa_register %rbp
	subq	$256, %rsp              # imm = 0x100
                                        # kill: def $sil killed $sil killed $esi
	movq	%fs:40, %rax
	movq	%rax, -8(%rbp)
	movq	%rdi, -32(%rbp)
	andb	$1, %sil
	movb	%sil, -33(%rbp)
	movq	%rdx, -48(%rbp)
	movq	-32(%rbp), %rax
	movq	%rax, %rdi
	movq	%rax, -88(%rbp)         # 8-byte Spill
	callq	_ZN14ITransformableC2Ev
	movq	-88(%rbp), %rax         # 8-byte Reload
	addq	$184, %rax
	movq	%rax, %rdi
	callq	_ZN11IRenderableC2Ev
	movq	-88(%rbp), %rax         # 8-byte Reload
	addq	$192, %rax
	movq	%rax, %rdi
	callq	_ZN15IMouseUpdatableC2Ev
	leaq	_ZTV5Plane+16(%rip), %rax
	movq	-88(%rbp), %rcx         # 8-byte Reload
	movq	%rax, (%rcx)
	leaq	_ZTV5Plane+72(%rip), %rax
	movq	%rax, 184(%rcx)
	leaq	_ZTV5Plane+120(%rip), %rax
	movq	%rax, 192(%rcx)
	addq	$200, %rcx
	movq	%rcx, %rdi
	movq	%rcx, -96(%rbp)         # 8-byte Spill
	callq	_ZNSt6vectorIS_IN2sf6VertexESaIS1_EESaIS3_EEC2Ev
	movq	-88(%rbp), %rax         # 8-byte Reload
	addq	$224, %rax
	movq	%rax, %rdi
	movq	%rax, -104(%rbp)        # 8-byte Spill
	callq	_ZNSt6vectorIN2sf12VertexBufferESaIS1_EEC2Ev
	movq	-88(%rbp), %rax         # 8-byte Reload
	addq	$248, %rax
	movq	%rax, %rdi
	movq	%rax, -112(%rbp)        # 8-byte Spill
	callq	_ZNSt6vectorIN2sf9TransformESaIS1_EEC2Ev
	movq	-88(%rbp), %rax         # 8-byte Reload
	addq	$272, %rax              # imm = 0x110
	movq	%rax, %rdi
	movq	%rax, -120(%rbp)        # 8-byte Spill
	callq	_ZNSt6vectorIN2sf5ImageESaIS1_EEC2Ev
	movq	-88(%rbp), %rax         # 8-byte Reload
	addq	$296, %rax              # imm = 0x128
	movq	%rax, %rdi
	movq	%rax, -128(%rbp)        # 8-byte Spill
	callq	_ZNSt6vectorIN2sf7TextureESaIS1_EEC2Ev
	movq	-88(%rbp), %rax         # 8-byte Reload
	addq	$320, %rax              # imm = 0x140
	movq	%rax, %rdi
	movq	%rax, -136(%rbp)        # 8-byte Spill
	callq	_ZNSt6vectorIbSaIbEEC2Ev
	movq	-88(%rbp), %rax         # 8-byte Reload
	addq	$360, %rax              # imm = 0x168
.Ltmp0:
	movq	%rax, %rdi
	movq	%rax, -144(%rbp)        # 8-byte Spill
	callq	_ZN2sf6ShaderC1Ev@PLT
.Ltmp1:
	jmp	.LBB1_1
.LBB1_1:
	movq	-88(%rbp), %rax         # 8-byte Reload
	addq	$464, %rax              # imm = 0x1D0
.Ltmp3:
	movq	%rax, %rdi
	movq	%rax, -152(%rbp)        # 8-byte Spill
	callq	_ZN2sf7TextureC1Ev@PLT
.Ltmp4:
	jmp	.LBB1_2
.LBB1_2:
	movq	-88(%rbp), %rax         # 8-byte Reload
	addq	$504, %rax              # imm = 0x1F8
.Ltmp6:
	movq	%rax, %rdi
	movq	%rax, -160(%rbp)        # 8-byte Spill
	callq	_ZN2sf7TextureC1Ev@PLT
.Ltmp7:
	jmp	.LBB1_3
.LBB1_3:
	movq	-88(%rbp), %rax         # 8-byte Reload
	addq	$584, %rax              # imm = 0x248
	movq	%rax, %rdi
	movq	%rax, -168(%rbp)        # 8-byte Spill
	callq	_ZNSt8functionIFvhEEC2Ev
	movq	-88(%rbp), %rax         # 8-byte Reload
	addq	$632, %rax              # imm = 0x278
.Ltmp9:
	movq	%rax, %rdi
	callq	_ZN2sf7Vector2IfEC2Ev
.Ltmp10:
	jmp	.LBB1_4
.LBB1_4:
	movq	-88(%rbp), %rax         # 8-byte Reload
	addq	$640, %rax              # imm = 0x280
.Ltmp11:
	movq	%rax, %rdi
	callq	_ZN2sf7Vector2IiEC2Ev
.Ltmp12:
	jmp	.LBB1_5
.LBB1_5:
	movq	-88(%rbp), %rax         # 8-byte Reload
	addq	$656, %rax              # imm = 0x290
.Ltmp13:
	leaq	-16(%rbp), %rdi
	vxorps	%xmm0, %xmm0, %xmm0
	vmovss	%xmm0, -172(%rbp)       # 4-byte Spill
	vmovss	-172(%rbp), %xmm1       # 4-byte Reload
                                        # xmm1 = mem[0],zero,zero,zero
	movq	%rax, -184(%rbp)        # 8-byte Spill
	callq	_ZN2sf7Vector2IfEC2Eff
.Ltmp14:
	jmp	.LBB1_6
.LBB1_6:
.Ltmp15:
	leaq	-16(%rbp), %rsi
	movq	-184(%rbp), %rdi        # 8-byte Reload
	callq	_ZN2sf14RectangleShapeC1ERKNS_7Vector2IfEE@PLT
.Ltmp16:
	jmp	.LBB1_7
.LBB1_7:
	movq	-88(%rbp), %rax         # 8-byte Reload
	addq	$1032, %rax             # imm = 0x408
	movq	%rax, %rdi
	movq	%rax, -192(%rbp)        # 8-byte Spill
	callq	_ZNSt6vectorIbSaIbEEC2Ev
	movq	-88(%rbp), %rax         # 8-byte Reload
	addq	$1072, %rax             # imm = 0x430
	movq	%rax, %rdi
	movq	%rax, -200(%rbp)        # 8-byte Spill
	callq	_ZNSt6vectorIP10CollectionSaIS1_EEC2Ev
	movq	-88(%rbp), %rax         # 8-byte Reload
	addq	$1096, %rax             # imm = 0x448
.Ltmp18:
	movq	%rax, %rdi
	callq	_ZN2sf7Vector2IiEC2Ev
.Ltmp19:
	jmp	.LBB1_8
.LBB1_8:
	movq	-88(%rbp), %rax         # 8-byte Reload
	addq	$1104, %rax             # imm = 0x450
.Ltmp20:
	movq	%rax, %rdi
	movq	%rax, -208(%rbp)        # 8-byte Spill
	callq	_ZN2sf4TextC1Ev@PLT
.Ltmp21:
	jmp	.LBB1_9
.LBB1_9:
	movq	-88(%rbp), %rax         # 8-byte Reload
	addq	$1476, %rax             # imm = 0x5C4
.Ltmp23:
	movq	%rax, %rdi
	callq	_ZN2sf4ViewC1Ev@PLT
.Ltmp24:
	jmp	.LBB1_10
.LBB1_10:
	movzbl	-33(%rbp), %eax
.Ltmp25:
	andl	$1, %eax
	movq	-88(%rbp), %rdi         # 8-byte Reload
	movl	%eax, %esi
	callq	_ZN5Plane5SetupEb
.Ltmp26:
	jmp	.LBB1_11
.LBB1_11:
	movq	$0, -72(%rbp)
.LBB1_12:                               # =>This Inner Loop Header: Depth=1
	movq	-72(%rbp), %rax
	movq	-88(%rbp), %rcx         # 8-byte Reload
	addq	$1072, %rcx             # imm = 0x430
	movq	%rcx, %rdi
	movq	%rax, -216(%rbp)        # 8-byte Spill
	callq	_ZNKSt6vectorIP10CollectionSaIS1_EE4sizeEv
	movq	-216(%rbp), %rcx        # 8-byte Reload
	cmpq	%rax, %rcx
	jae	.LBB1_23
# %bb.13:                               #   in Loop: Header=BB1_12 Depth=1
	movq	-88(%rbp), %rax         # 8-byte Reload
	addq	$1072, %rax             # imm = 0x430
	movq	-72(%rbp), %rsi
	movq	%rax, %rdi
	callq	_ZNSt6vectorIP10CollectionSaIS1_EEixEm
	movq	(%rax), %rax
	cmpq	$0, %rax
	movq	%rax, -224(%rbp)        # 8-byte Spill
	je	.LBB1_15
# %bb.14:                               #   in Loop: Header=BB1_12 Depth=1
	movq	-224(%rbp), %rax        # 8-byte Reload
	movq	(%rax), %rcx
	movq	%rax, %rdi
	callq	*8(%rcx)
.LBB1_15:                               #   in Loop: Header=BB1_12 Depth=1
	jmp	.LBB1_16
.LBB1_16:                               #   in Loop: Header=BB1_12 Depth=1
	movq	-72(%rbp), %rax
	addq	$1, %rax
	movq	%rax, -72(%rbp)
	jmp	.LBB1_12
.LBB1_17:
.Ltmp2:
                                        # kill: def $edx killed $edx killed $rdx
	movq	%rax, -56(%rbp)
	movl	%edx, -60(%rbp)
	jmp	.LBB1_38
.LBB1_18:
.Ltmp5:
                                        # kill: def $edx killed $edx killed $rdx
	movq	%rax, -56(%rbp)
	movl	%edx, -60(%rbp)
	jmp	.LBB1_37
.LBB1_19:
.Ltmp8:
                                        # kill: def $edx killed $edx killed $rdx
	movq	%rax, -56(%rbp)
	movl	%edx, -60(%rbp)
	jmp	.LBB1_36
.LBB1_20:
.Ltmp17:
                                        # kill: def $edx killed $edx killed $rdx
	movq	%rax, -56(%rbp)
	movl	%edx, -60(%rbp)
	jmp	.LBB1_35
.LBB1_21:
.Ltmp22:
                                        # kill: def $edx killed $edx killed $rdx
	movq	%rax, -56(%rbp)
	movl	%edx, -60(%rbp)
	jmp	.LBB1_34
.LBB1_22:
.Ltmp34:
                                        # kill: def $edx killed $edx killed $rdx
	movq	%rax, -56(%rbp)
	movl	%edx, -60(%rbp)
	jmp	.LBB1_33
.LBB1_23:
	movq	-88(%rbp), %rax         # 8-byte Reload
	addq	$1072, %rax             # imm = 0x430
	movq	%rax, %rdi
	callq	_ZNSt6vectorIP10CollectionSaIS1_EE5clearEv
	movq	$0, -80(%rbp)
.LBB1_24:                               # =>This Inner Loop Header: Depth=1
	movq	-80(%rbp), %rax
	movq	-48(%rbp), %rcx
	addq	$1072, %rcx             # imm = 0x430
	movq	%rcx, %rdi
	movq	%rax, -232(%rbp)        # 8-byte Spill
	callq	_ZNKSt6vectorIP10CollectionSaIS1_EE4sizeEv
	movq	-232(%rbp), %rcx        # 8-byte Reload
	cmpq	%rax, %rcx
	jae	.LBB1_31
# %bb.25:                               #   in Loop: Header=BB1_24 Depth=1
	movq	-88(%rbp), %rax         # 8-byte Reload
	addq	$1072, %rax             # imm = 0x430
.Ltmp27:
	movl	$216, %edi
	movq	%rax, -240(%rbp)        # 8-byte Spill
	callq	_Znwm@PLT
.Ltmp28:
	movq	%rax, -248(%rbp)        # 8-byte Spill
	jmp	.LBB1_26
.LBB1_26:                               #   in Loop: Header=BB1_24 Depth=1
	movq	-248(%rbp), %rax        # 8-byte Reload
	movq	-48(%rbp), %rcx
	addq	$1072, %rcx             # imm = 0x430
	movq	-80(%rbp), %rsi
	movq	%rcx, %rdi
	movq	%rax, -256(%rbp)        # 8-byte Spill
	callq	_ZNKSt6vectorIP10CollectionSaIS1_EEixEm
	movq	(%rax), %rsi
.Ltmp29:
	movq	-248(%rbp), %rdi        # 8-byte Reload
	callq	_ZN10CollectionC1ERKS_@PLT
.Ltmp30:
	jmp	.LBB1_27
.LBB1_27:                               #   in Loop: Header=BB1_24 Depth=1
	movq	-256(%rbp), %rax        # 8-byte Reload
	movq	%rax, -24(%rbp)
.Ltmp32:
	leaq	-24(%rbp), %rsi
	movq	-240(%rbp), %rdi        # 8-byte Reload
	callq	_ZNSt6vectorIP10CollectionSaIS1_EE9push_backEOS1_
.Ltmp33:
	jmp	.LBB1_28
.LBB1_28:                               #   in Loop: Header=BB1_24 Depth=1
	jmp	.LBB1_29
.LBB1_29:                               #   in Loop: Header=BB1_24 Depth=1
	movq	-80(%rbp), %rax
	addq	$1, %rax
	movq	%rax, -80(%rbp)
	jmp	.LBB1_24
.LBB1_30:
.Ltmp31:
                                        # kill: def $edx killed $edx killed $rdx
	movq	%rax, -56(%rbp)
	movl	%edx, -60(%rbp)
	movq	-248(%rbp), %rdi        # 8-byte Reload
	callq	_ZdlPv@PLT
	jmp	.LBB1_33
.LBB1_31:
	movq	%fs:40, %rax
	movq	-8(%rbp), %rcx
	cmpq	%rcx, %rax
	jne	.LBB1_40
# %bb.32:
	addq	$256, %rsp              # imm = 0x100
	popq	%rbp
	.cfi_def_cfa %rsp, 8
	retq
.LBB1_33:
	.cfi_def_cfa %rbp, 16
	movq	-208(%rbp), %rdi        # 8-byte Reload
	callq	_ZN2sf4TextD2Ev
.LBB1_34:
	movq	-200(%rbp), %rdi        # 8-byte Reload
	callq	_ZNSt6vectorIP10CollectionSaIS1_EED2Ev
	movq	-192(%rbp), %rdi        # 8-byte Reload
	callq	_ZNSt6vectorIbSaIbEED2Ev
	movq	-184(%rbp), %rdi        # 8-byte Reload
	callq	_ZN2sf14RectangleShapeD2Ev
.LBB1_35:
	movq	-168(%rbp), %rdi        # 8-byte Reload
	callq	_ZNSt8functionIFvhEED2Ev
	movq	-160(%rbp), %rdi        # 8-byte Reload
	callq	_ZN2sf7TextureD1Ev@PLT
.LBB1_36:
	movq	-152(%rbp), %rdi        # 8-byte Reload
	callq	_ZN2sf7TextureD1Ev@PLT
.LBB1_37:
	movq	-144(%rbp), %rdi        # 8-byte Reload
	callq	_ZN2sf6ShaderD1Ev@PLT
.LBB1_38:
	movq	-136(%rbp), %rdi        # 8-byte Reload
	callq	_ZNSt6vectorIbSaIbEED2Ev
	movq	-128(%rbp), %rdi        # 8-byte Reload
	callq	_ZNSt6vectorIN2sf7TextureESaIS1_EED2Ev
	movq	-120(%rbp), %rdi        # 8-byte Reload
	callq	_ZNSt6vectorIN2sf5ImageESaIS1_EED2Ev
	movq	-112(%rbp), %rdi        # 8-byte Reload
	callq	_ZNSt6vectorIN2sf9TransformESaIS1_EED2Ev
	movq	-104(%rbp), %rdi        # 8-byte Reload
	callq	_ZNSt6vectorIN2sf12VertexBufferESaIS1_EED2Ev
	movq	-96(%rbp), %rdi         # 8-byte Reload
	callq	_ZNSt6vectorIS_IN2sf6VertexESaIS1_EESaIS3_EED2Ev
	movq	-88(%rbp), %rax         # 8-byte Reload
	addq	$184, %rax
	movq	%rax, %rdi
	callq	_ZN11IRenderableD2Ev
	movq	-88(%rbp), %rax         # 8-byte Reload
	movq	%rax, %rdi
	callq	_ZN14ITransformableD2Ev
# %bb.39:
	movq	-56(%rbp), %rdi
	callq	_Unwind_Resume@PLT
.LBB1_40:
	callq	__stack_chk_fail@PLT
.Lfunc_end1:
	.size	_ZN5PlaneC2EbRKS_, .Lfunc_end1-_ZN5PlaneC2EbRKS_
	.cfi_endproc
	.section	.gcc_except_table,"a",@progbits
	.p2align	2
GCC_except_table1:
.Lexception0:
	.byte	255                     # @LPStart Encoding = omit
	.byte	255                     # @TType Encoding = omit
	.byte	1                       # Call site Encoding = uleb128
	.uleb128 .Lcst_end0-.Lcst_begin0
.Lcst_begin0:
	.uleb128 .Lfunc_begin0-.Lfunc_begin0 # >> Call Site 1 <<
	.uleb128 .Ltmp0-.Lfunc_begin0   #   Call between .Lfunc_begin0 and .Ltmp0
	.byte	0                       #     has no landing pad
	.byte	0                       #   On action: cleanup
	.uleb128 .Ltmp0-.Lfunc_begin0   # >> Call Site 2 <<
	.uleb128 .Ltmp1-.Ltmp0          #   Call between .Ltmp0 and .Ltmp1
	.uleb128 .Ltmp2-.Lfunc_begin0   #     jumps to .Ltmp2
	.byte	0                       #   On action: cleanup
	.uleb128 .Ltmp3-.Lfunc_begin0   # >> Call Site 3 <<
	.uleb128 .Ltmp4-.Ltmp3          #   Call between .Ltmp3 and .Ltmp4
	.uleb128 .Ltmp5-.Lfunc_begin0   #     jumps to .Ltmp5
	.byte	0                       #   On action: cleanup
	.uleb128 .Ltmp6-.Lfunc_begin0   # >> Call Site 4 <<
	.uleb128 .Ltmp7-.Ltmp6          #   Call between .Ltmp6 and .Ltmp7
	.uleb128 .Ltmp8-.Lfunc_begin0   #     jumps to .Ltmp8
	.byte	0                       #   On action: cleanup
	.uleb128 .Ltmp9-.Lfunc_begin0   # >> Call Site 5 <<
	.uleb128 .Ltmp16-.Ltmp9         #   Call between .Ltmp9 and .Ltmp16
	.uleb128 .Ltmp17-.Lfunc_begin0  #     jumps to .Ltmp17
	.byte	0                       #   On action: cleanup
	.uleb128 .Ltmp18-.Lfunc_begin0  # >> Call Site 6 <<
	.uleb128 .Ltmp21-.Ltmp18        #   Call between .Ltmp18 and .Ltmp21
	.uleb128 .Ltmp22-.Lfunc_begin0  #     jumps to .Ltmp22
	.byte	0                       #   On action: cleanup
	.uleb128 .Ltmp23-.Lfunc_begin0  # >> Call Site 7 <<
	.uleb128 .Ltmp26-.Ltmp23        #   Call between .Ltmp23 and .Ltmp26
	.uleb128 .Ltmp34-.Lfunc_begin0  #     jumps to .Ltmp34
	.byte	0                       #   On action: cleanup
	.uleb128 .Ltmp26-.Lfunc_begin0  # >> Call Site 8 <<
	.uleb128 .Ltmp27-.Ltmp26        #   Call between .Ltmp26 and .Ltmp27
	.byte	0                       #     has no landing pad
	.byte	0                       #   On action: cleanup
	.uleb128 .Ltmp27-.Lfunc_begin0  # >> Call Site 9 <<
	.uleb128 .Ltmp28-.Ltmp27        #   Call between .Ltmp27 and .Ltmp28
	.uleb128 .Ltmp34-.Lfunc_begin0  #     jumps to .Ltmp34
	.byte	0                       #   On action: cleanup
	.uleb128 .Ltmp29-.Lfunc_begin0  # >> Call Site 10 <<
	.uleb128 .Ltmp30-.Ltmp29        #   Call between .Ltmp29 and .Ltmp30
	.uleb128 .Ltmp31-.Lfunc_begin0  #     jumps to .Ltmp31
	.byte	0                       #   On action: cleanup
	.uleb128 .Ltmp32-.Lfunc_begin0  # >> Call Site 11 <<
	.uleb128 .Ltmp33-.Ltmp32        #   Call between .Ltmp32 and .Ltmp33
	.uleb128 .Ltmp34-.Lfunc_begin0  #     jumps to .Ltmp34
	.byte	0                       #   On action: cleanup
	.uleb128 .Ltmp33-.Lfunc_begin0  # >> Call Site 12 <<
	.uleb128 .Lfunc_end1-.Ltmp33    #   Call between .Ltmp33 and .Lfunc_end1
	.byte	0                       #     has no landing pad
	.byte	0                       #   On action: cleanup
.Lcst_end0:
	.p2align	2
                                        # -- End function
	.section	.text._ZN14ITransformableC2Ev,"axG",@progbits,_ZN14ITransformableC2Ev,comdat
	.weak	_ZN14ITransformableC2Ev # -- Begin function _ZN14ITransformableC2Ev
	.p2align	4, 0x90
	.type	_ZN14ITransformableC2Ev,@function
_ZN14ITransformableC2Ev:                # @_ZN14ITransformableC2Ev
.Lfunc_begin1:
	.cfi_startproc
	.cfi_personality 155, DW.ref.__gxx_personality_v0
	.cfi_lsda 27, .Lexception1
# %bb.0:
	pushq	%rbp
	.cfi_def_cfa_offset 16
	.cfi_offset %rbp, -16
	movq	%rsp, %rbp
	.cfi_def_cfa_register %rbp
	subq	$32, %rsp
	movq	%rdi, -8(%rbp)
	movq	-8(%rbp), %rax
	movq	%rax, %rdi
	movq	%rax, -32(%rbp)         # 8-byte Spill
	callq	_ZN2sf13TransformableC2Ev@PLT
	leaq	_ZTV14ITransformable+16(%rip), %rax
	movq	-32(%rbp), %rcx         # 8-byte Reload
	movq	%rax, (%rcx)
	addq	$172, %rcx
.Ltmp35:
	movq	%rcx, %rdi
	callq	_ZN2sf7Vector2IjEC2Ev
.Ltmp36:
	jmp	.LBB2_1
.LBB2_1:
	addq	$32, %rsp
	popq	%rbp
	.cfi_def_cfa %rsp, 8
	retq
.LBB2_2:
	.cfi_def_cfa %rbp, 16
.Ltmp37:
                                        # kill: def $edx killed $edx killed $rdx
	movq	%rax, -16(%rbp)
	movl	%edx, -20(%rbp)
	movq	-32(%rbp), %rax         # 8-byte Reload
	movq	%rax, %rdi
	callq	_ZN2sf13TransformableD2Ev@PLT
# %bb.3:
	movq	-16(%rbp), %rdi
	callq	_Unwind_Resume@PLT
.Lfunc_end2:
	.size	_ZN14ITransformableC2Ev, .Lfunc_end2-_ZN14ITransformableC2Ev
	.cfi_endproc
	.section	.gcc_except_table,"a",@progbits
	.p2align	2
GCC_except_table2:
.Lexception1:
	.byte	255                     # @LPStart Encoding = omit
	.byte	255                     # @TType Encoding = omit
	.byte	1                       # Call site Encoding = uleb128
	.uleb128 .Lcst_end1-.Lcst_begin1
.Lcst_begin1:
	.uleb128 .Lfunc_begin1-.Lfunc_begin1 # >> Call Site 1 <<
	.uleb128 .Ltmp35-.Lfunc_begin1  #   Call between .Lfunc_begin1 and .Ltmp35
	.byte	0                       #     has no landing pad
	.byte	0                       #   On action: cleanup
	.uleb128 .Ltmp35-.Lfunc_begin1  # >> Call Site 2 <<
	.uleb128 .Ltmp36-.Ltmp35        #   Call between .Ltmp35 and .Ltmp36
	.uleb128 .Ltmp37-.Lfunc_begin1  #     jumps to .Ltmp37
	.byte	0                       #   On action: cleanup
	.uleb128 .Ltmp36-.Lfunc_begin1  # >> Call Site 3 <<
	.uleb128 .Lfunc_end2-.Ltmp36    #   Call between .Ltmp36 and .Lfunc_end2
	.byte	0                       #     has no landing pad
	.byte	0                       #   On action: cleanup
.Lcst_end1:
	.p2align	2
                                        # -- End function
	.section	.text._ZN11IRenderableC2Ev,"axG",@progbits,_ZN11IRenderableC2Ev,comdat
	.weak	_ZN11IRenderableC2Ev    # -- Begin function _ZN11IRenderableC2Ev
	.p2align	4, 0x90
	.type	_ZN11IRenderableC2Ev,@function
_ZN11IRenderableC2Ev:                   # @_ZN11IRenderableC2Ev
	.cfi_startproc
# %bb.0:
	pushq	%rbp
	.cfi_def_cfa_offset 16
	.cfi_offset %rbp, -16
	movq	%rsp, %rbp
	.cfi_def_cfa_register %rbp
	subq	$16, %rsp
	movq	%rdi, -8(%rbp)
	movq	-8(%rbp), %rax
	movq	%rax, %rcx
	movq	%rcx, %rdi
	movq	%rax, -16(%rbp)         # 8-byte Spill
	callq	_ZN2sf8DrawableC2Ev
	movq	_ZTV11IRenderable@GOTPCREL(%rip), %rax
	addq	$16, %rax
	movq	-16(%rbp), %rcx         # 8-byte Reload
	movq	%rax, (%rcx)
	addq	$16, %rsp
	popq	%rbp
	.cfi_def_cfa %rsp, 8
	retq
.Lfunc_end3:
	.size	_ZN11IRenderableC2Ev, .Lfunc_end3-_ZN11IRenderableC2Ev
	.cfi_endproc
                                        # -- End function
	.section	.text._ZN15IMouseUpdatableC2Ev,"axG",@progbits,_ZN15IMouseUpdatableC2Ev,comdat
	.weak	_ZN15IMouseUpdatableC2Ev # -- Begin function _ZN15IMouseUpdatableC2Ev
	.p2align	4, 0x90
	.type	_ZN15IMouseUpdatableC2Ev,@function
_ZN15IMouseUpdatableC2Ev:               # @_ZN15IMouseUpdatableC2Ev
	.cfi_startproc
# %bb.0:
	pushq	%rbp
	.cfi_def_cfa_offset 16
	.cfi_offset %rbp, -16
	movq	%rsp, %rbp
	.cfi_def_cfa_register %rbp
	movq	_ZTV15IMouseUpdatable@GOTPCREL(%rip), %rax
	addq	$16, %rax
	movq	%rdi, -8(%rbp)
	movq	-8(%rbp), %rcx
	movq	%rax, (%rcx)
	popq	%rbp
	.cfi_def_cfa %rsp, 8
	retq
.Lfunc_end4:
	.size	_ZN15IMouseUpdatableC2Ev, .Lfunc_end4-_ZN15IMouseUpdatableC2Ev
	.cfi_endproc
                                        # -- End function
	.section	.text._ZNSt6vectorIS_IN2sf6VertexESaIS1_EESaIS3_EEC2Ev,"axG",@progbits,_ZNSt6vectorIS_IN2sf6VertexESaIS1_EESaIS3_EEC2Ev,comdat
	.weak	_ZNSt6vectorIS_IN2sf6VertexESaIS1_EESaIS3_EEC2Ev # -- Begin function _ZNSt6vectorIS_IN2sf6VertexESaIS1_EESaIS3_EEC2Ev
	.p2align	4, 0x90
	.type	_ZNSt6vectorIS_IN2sf6VertexESaIS1_EESaIS3_EEC2Ev,@function
_ZNSt6vectorIS_IN2sf6VertexESaIS1_EESaIS3_EEC2Ev: # @_ZNSt6vectorIS_IN2sf6VertexESaIS1_EESaIS3_EEC2Ev
	.cfi_startproc
# %bb.0:
	pushq	%rbp
	.cfi_def_cfa_offset 16
	.cfi_offset %rbp, -16
	movq	%rsp, %rbp
	.cfi_def_cfa_register %rbp
	subq	$16, %rsp
	movq	%rdi, -8(%rbp)
	movq	-8(%rbp), %rax
	movq	%rax, %rdi
	callq	_ZNSt12_Vector_baseISt6vectorIN2sf6VertexESaIS2_EESaIS4_EEC2Ev
	addq	$16, %rsp
	popq	%rbp
	.cfi_def_cfa %rsp, 8
	retq
.Lfunc_end5:
	.size	_ZNSt6vectorIS_IN2sf6VertexESaIS1_EESaIS3_EEC2Ev, .Lfunc_end5-_ZNSt6vectorIS_IN2sf6VertexESaIS1_EESaIS3_EEC2Ev
	.cfi_endproc
                                        # -- End function
	.section	.text._ZNSt6vectorIN2sf12VertexBufferESaIS1_EEC2Ev,"axG",@progbits,_ZNSt6vectorIN2sf12VertexBufferESaIS1_EEC2Ev,comdat
	.weak	_ZNSt6vectorIN2sf12VertexBufferESaIS1_EEC2Ev # -- Begin function _ZNSt6vectorIN2sf12VertexBufferESaIS1_EEC2Ev
	.p2align	4, 0x90
	.type	_ZNSt6vectorIN2sf12VertexBufferESaIS1_EEC2Ev,@function
_ZNSt6vectorIN2sf12VertexBufferESaIS1_EEC2Ev: # @_ZNSt6vectorIN2sf12VertexBufferESaIS1_EEC2Ev
	.cfi_startproc
# %bb.0:
	pushq	%rbp
	.cfi_def_cfa_offset 16
	.cfi_offset %rbp, -16
	movq	%rsp, %rbp
	.cfi_def_cfa_register %rbp
	subq	$16, %rsp
	movq	%rdi, -8(%rbp)
	movq	-8(%rbp), %rax
	movq	%rax, %rdi
	callq	_ZNSt12_Vector_baseIN2sf12VertexBufferESaIS1_EEC2Ev
	addq	$16, %rsp
	popq	%rbp
	.cfi_def_cfa %rsp, 8
	retq
.Lfunc_end6:
	.size	_ZNSt6vectorIN2sf12VertexBufferESaIS1_EEC2Ev, .Lfunc_end6-_ZNSt6vectorIN2sf12VertexBufferESaIS1_EEC2Ev
	.cfi_endproc
                                        # -- End function
	.section	.text._ZNSt6vectorIN2sf9TransformESaIS1_EEC2Ev,"axG",@progbits,_ZNSt6vectorIN2sf9TransformESaIS1_EEC2Ev,comdat
	.weak	_ZNSt6vectorIN2sf9TransformESaIS1_EEC2Ev # -- Begin function _ZNSt6vectorIN2sf9TransformESaIS1_EEC2Ev
	.p2align	4, 0x90
	.type	_ZNSt6vectorIN2sf9TransformESaIS1_EEC2Ev,@function
_ZNSt6vectorIN2sf9TransformESaIS1_EEC2Ev: # @_ZNSt6vectorIN2sf9TransformESaIS1_EEC2Ev
	.cfi_startproc
# %bb.0:
	pushq	%rbp
	.cfi_def_cfa_offset 16
	.cfi_offset %rbp, -16
	movq	%rsp, %rbp
	.cfi_def_cfa_register %rbp
	subq	$16, %rsp
	movq	%rdi, -8(%rbp)
	movq	-8(%rbp), %rax
	movq	%rax, %rdi
	callq	_ZNSt12_Vector_baseIN2sf9TransformESaIS1_EEC2Ev
	addq	$16, %rsp
	popq	%rbp
	.cfi_def_cfa %rsp, 8
	retq
.Lfunc_end7:
	.size	_ZNSt6vectorIN2sf9TransformESaIS1_EEC2Ev, .Lfunc_end7-_ZNSt6vectorIN2sf9TransformESaIS1_EEC2Ev
	.cfi_endproc
                                        # -- End function
	.section	.text._ZNSt6vectorIN2sf5ImageESaIS1_EEC2Ev,"axG",@progbits,_ZNSt6vectorIN2sf5ImageESaIS1_EEC2Ev,comdat
	.weak	_ZNSt6vectorIN2sf5ImageESaIS1_EEC2Ev # -- Begin function _ZNSt6vectorIN2sf5ImageESaIS1_EEC2Ev
	.p2align	4, 0x90
	.type	_ZNSt6vectorIN2sf5ImageESaIS1_EEC2Ev,@function
_ZNSt6vectorIN2sf5ImageESaIS1_EEC2Ev:   # @_ZNSt6vectorIN2sf5ImageESaIS1_EEC2Ev
	.cfi_startproc
# %bb.0:
	pushq	%rbp
	.cfi_def_cfa_offset 16
	.cfi_offset %rbp, -16
	movq	%rsp, %rbp
	.cfi_def_cfa_register %rbp
	subq	$16, %rsp
	movq	%rdi, -8(%rbp)
	movq	-8(%rbp), %rax
	movq	%rax, %rdi
	callq	_ZNSt12_Vector_baseIN2sf5ImageESaIS1_EEC2Ev
	addq	$16, %rsp
	popq	%rbp
	.cfi_def_cfa %rsp, 8
	retq
.Lfunc_end8:
	.size	_ZNSt6vectorIN2sf5ImageESaIS1_EEC2Ev, .Lfunc_end8-_ZNSt6vectorIN2sf5ImageESaIS1_EEC2Ev
	.cfi_endproc
                                        # -- End function
	.section	.text._ZNSt6vectorIN2sf7TextureESaIS1_EEC2Ev,"axG",@progbits,_ZNSt6vectorIN2sf7TextureESaIS1_EEC2Ev,comdat
	.weak	_ZNSt6vectorIN2sf7TextureESaIS1_EEC2Ev # -- Begin function _ZNSt6vectorIN2sf7TextureESaIS1_EEC2Ev
	.p2align	4, 0x90
	.type	_ZNSt6vectorIN2sf7TextureESaIS1_EEC2Ev,@function
_ZNSt6vectorIN2sf7TextureESaIS1_EEC2Ev: # @_ZNSt6vectorIN2sf7TextureESaIS1_EEC2Ev
	.cfi_startproc
# %bb.0:
	pushq	%rbp
	.cfi_def_cfa_offset 16
	.cfi_offset %rbp, -16
	movq	%rsp, %rbp
	.cfi_def_cfa_register %rbp
	subq	$16, %rsp
	movq	%rdi, -8(%rbp)
	movq	-8(%rbp), %rax
	movq	%rax, %rdi
	callq	_ZNSt12_Vector_baseIN2sf7TextureESaIS1_EEC2Ev
	addq	$16, %rsp
	popq	%rbp
	.cfi_def_cfa %rsp, 8
	retq
.Lfunc_end9:
	.size	_ZNSt6vectorIN2sf7TextureESaIS1_EEC2Ev, .Lfunc_end9-_ZNSt6vectorIN2sf7TextureESaIS1_EEC2Ev
	.cfi_endproc
                                        # -- End function
	.section	.text._ZNSt6vectorIbSaIbEEC2Ev,"axG",@progbits,_ZNSt6vectorIbSaIbEEC2Ev,comdat
	.weak	_ZNSt6vectorIbSaIbEEC2Ev # -- Begin function _ZNSt6vectorIbSaIbEEC2Ev
	.p2align	4, 0x90
	.type	_ZNSt6vectorIbSaIbEEC2Ev,@function
_ZNSt6vectorIbSaIbEEC2Ev:               # @_ZNSt6vectorIbSaIbEEC2Ev
	.cfi_startproc
# %bb.0:
	pushq	%rbp
	.cfi_def_cfa_offset 16
	.cfi_offset %rbp, -16
	movq	%rsp, %rbp
	.cfi_def_cfa_register %rbp
	subq	$16, %rsp
	movq	%rdi, -8(%rbp)
	movq	-8(%rbp), %rax
	movq	%rax, %rdi
	callq	_ZNSt13_Bvector_baseISaIbEEC2Ev
	addq	$16, %rsp
	popq	%rbp
	.cfi_def_cfa %rsp, 8
	retq
.Lfunc_end10:
	.size	_ZNSt6vectorIbSaIbEEC2Ev, .Lfunc_end10-_ZNSt6vectorIbSaIbEEC2Ev
	.cfi_endproc
                                        # -- End function
	.section	.text._ZNSt8functionIFvhEEC2Ev,"axG",@progbits,_ZNSt8functionIFvhEEC2Ev,comdat
	.weak	_ZNSt8functionIFvhEEC2Ev # -- Begin function _ZNSt8functionIFvhEEC2Ev
	.p2align	4, 0x90
	.type	_ZNSt8functionIFvhEEC2Ev,@function
_ZNSt8functionIFvhEEC2Ev:               # @_ZNSt8functionIFvhEEC2Ev
.Lfunc_begin2:
	.cfi_startproc
	.cfi_personality 155, DW.ref.__gxx_personality_v0
	.cfi_lsda 27, .Lexception2
# %bb.0:
	pushq	%rbp
	.cfi_def_cfa_offset 16
	.cfi_offset %rbp, -16
	movq	%rsp, %rbp
	.cfi_def_cfa_register %rbp
	subq	$16, %rsp
	movq	%rdi, -8(%rbp)
	movq	-8(%rbp), %rdi
.Ltmp38:
	callq	_ZNSt14_Function_baseC2Ev
.Ltmp39:
	jmp	.LBB11_1
.LBB11_1:
	addq	$16, %rsp
	popq	%rbp
	.cfi_def_cfa %rsp, 8
	retq
.LBB11_2:
	.cfi_def_cfa %rbp, 16
.Ltmp40:
                                        # kill: def $edx killed $edx killed $rdx
	movq	%rax, %rdi
	movl	%edx, -12(%rbp)         # 4-byte Spill
	callq	__clang_call_terminate
.Lfunc_end11:
	.size	_ZNSt8functionIFvhEEC2Ev, .Lfunc_end11-_ZNSt8functionIFvhEEC2Ev
	.cfi_endproc
	.section	.gcc_except_table,"a",@progbits
	.p2align	2
GCC_except_table11:
.Lexception2:
	.byte	255                     # @LPStart Encoding = omit
	.byte	156                     # @TType Encoding = indirect pcrel sdata8
	.uleb128 .Lttbase0-.Lttbaseref0
.Lttbaseref0:
	.byte	1                       # Call site Encoding = uleb128
	.uleb128 .Lcst_end2-.Lcst_begin2
.Lcst_begin2:
	.uleb128 .Ltmp38-.Lfunc_begin2  # >> Call Site 1 <<
	.uleb128 .Ltmp39-.Ltmp38        #   Call between .Ltmp38 and .Ltmp39
	.uleb128 .Ltmp40-.Lfunc_begin2  #     jumps to .Ltmp40
	.byte	1                       #   On action: 1
.Lcst_end2:
	.byte	1                       # >> Action Record 1 <<
                                        #   Catch TypeInfo 1
	.byte	0                       #   No further actions
	.p2align	2
                                        # >> Catch TypeInfos <<
	.quad	0                       # TypeInfo 1
.Lttbase0:
	.p2align	2
                                        # -- End function
	.section	.text._ZN2sf7Vector2IfEC2Ev,"axG",@progbits,_ZN2sf7Vector2IfEC2Ev,comdat
	.weak	_ZN2sf7Vector2IfEC2Ev   # -- Begin function _ZN2sf7Vector2IfEC2Ev
	.p2align	4, 0x90
	.type	_ZN2sf7Vector2IfEC2Ev,@function
_ZN2sf7Vector2IfEC2Ev:                  # @_ZN2sf7Vector2IfEC2Ev
	.cfi_startproc
# %bb.0:
	pushq	%rbp
	.cfi_def_cfa_offset 16
	.cfi_offset %rbp, -16
	movq	%rsp, %rbp
	.cfi_def_cfa_register %rbp
	movq	%rdi, -8(%rbp)
	movq	-8(%rbp), %rax
	vxorps	%xmm0, %xmm0, %xmm0
	vmovss	%xmm0, (%rax)
	vmovss	%xmm0, 4(%rax)
	popq	%rbp
	.cfi_def_cfa %rsp, 8
	retq
.Lfunc_end12:
	.size	_ZN2sf7Vector2IfEC2Ev, .Lfunc_end12-_ZN2sf7Vector2IfEC2Ev
	.cfi_endproc
                                        # -- End function
	.section	.text._ZN2sf7Vector2IiEC2Ev,"axG",@progbits,_ZN2sf7Vector2IiEC2Ev,comdat
	.weak	_ZN2sf7Vector2IiEC2Ev   # -- Begin function _ZN2sf7Vector2IiEC2Ev
	.p2align	4, 0x90
	.type	_ZN2sf7Vector2IiEC2Ev,@function
_ZN2sf7Vector2IiEC2Ev:                  # @_ZN2sf7Vector2IiEC2Ev
	.cfi_startproc
# %bb.0:
	pushq	%rbp
	.cfi_def_cfa_offset 16
	.cfi_offset %rbp, -16
	movq	%rsp, %rbp
	.cfi_def_cfa_register %rbp
	movq	%rdi, -8(%rbp)
	movq	-8(%rbp), %rax
	movl	$0, (%rax)
	movl	$0, 4(%rax)
	popq	%rbp
	.cfi_def_cfa %rsp, 8
	retq
.Lfunc_end13:
	.size	_ZN2sf7Vector2IiEC2Ev, .Lfunc_end13-_ZN2sf7Vector2IiEC2Ev
	.cfi_endproc
                                        # -- End function
	.section	.text._ZN2sf7Vector2IfEC2Eff,"axG",@progbits,_ZN2sf7Vector2IfEC2Eff,comdat
	.weak	_ZN2sf7Vector2IfEC2Eff  # -- Begin function _ZN2sf7Vector2IfEC2Eff
	.p2align	4, 0x90
	.type	_ZN2sf7Vector2IfEC2Eff,@function
_ZN2sf7Vector2IfEC2Eff:                 # @_ZN2sf7Vector2IfEC2Eff
	.cfi_startproc
# %bb.0:
	pushq	%rbp
	.cfi_def_cfa_offset 16
	.cfi_offset %rbp, -16
	movq	%rsp, %rbp
	.cfi_def_cfa_register %rbp
	movq	%rdi, -8(%rbp)
	vmovss	%xmm0, -12(%rbp)
	vmovss	%xmm1, -16(%rbp)
	movq	-8(%rbp), %rax
	vmovss	-12(%rbp), %xmm0        # xmm0 = mem[0],zero,zero,zero
	vmovss	%xmm0, (%rax)
	vmovss	-16(%rbp), %xmm0        # xmm0 = mem[0],zero,zero,zero
	vmovss	%xmm0, 4(%rax)
	popq	%rbp
	.cfi_def_cfa %rsp, 8
	retq
.Lfunc_end14:
	.size	_ZN2sf7Vector2IfEC2Eff, .Lfunc_end14-_ZN2sf7Vector2IfEC2Eff
	.cfi_endproc
                                        # -- End function
	.section	.text._ZNSt6vectorIP10CollectionSaIS1_EEC2Ev,"axG",@progbits,_ZNSt6vectorIP10CollectionSaIS1_EEC2Ev,comdat
	.weak	_ZNSt6vectorIP10CollectionSaIS1_EEC2Ev # -- Begin function _ZNSt6vectorIP10CollectionSaIS1_EEC2Ev
	.p2align	4, 0x90
	.type	_ZNSt6vectorIP10CollectionSaIS1_EEC2Ev,@function
_ZNSt6vectorIP10CollectionSaIS1_EEC2Ev: # @_ZNSt6vectorIP10CollectionSaIS1_EEC2Ev
	.cfi_startproc
# %bb.0:
	pushq	%rbp
	.cfi_def_cfa_offset 16
	.cfi_offset %rbp, -16
	movq	%rsp, %rbp
	.cfi_def_cfa_register %rbp
	subq	$16, %rsp
	movq	%rdi, -8(%rbp)
	movq	-8(%rbp), %rax
	movq	%rax, %rdi
	callq	_ZNSt12_Vector_baseIP10CollectionSaIS1_EEC2Ev
	addq	$16, %rsp
	popq	%rbp
	.cfi_def_cfa %rsp, 8
	retq
.Lfunc_end15:
	.size	_ZNSt6vectorIP10CollectionSaIS1_EEC2Ev, .Lfunc_end15-_ZNSt6vectorIP10CollectionSaIS1_EEC2Ev
	.cfi_endproc
                                        # -- End function
	.text
	.globl	_ZN5Plane5SetupEb       # -- Begin function _ZN5Plane5SetupEb
	.p2align	4, 0x90
	.type	_ZN5Plane5SetupEb,@function
_ZN5Plane5SetupEb:                      # @_ZN5Plane5SetupEb
.Lfunc_begin3:
	.cfi_startproc
	.cfi_personality 155, DW.ref.__gxx_personality_v0
	.cfi_lsda 27, .Lexception3
# %bb.0:
	pushq	%rbp
	.cfi_def_cfa_offset 16
	.cfi_offset %rbp, -16
	movq	%rsp, %rbp
	.cfi_def_cfa_register %rbp
	subq	$384, %rsp              # imm = 0x180
                                        # kill: def $sil killed $sil killed $esi
	movq	%fs:40, %rax
	movq	%rax, -8(%rbp)
	movq	%rdi, -280(%rbp)
	andb	$1, %sil
	movb	%sil, -281(%rbp)
	movq	-280(%rbp), %rax
	movb	-281(%rbp), %cl
	andb	$1, %cl
	movb	%cl, 1472(%rax)
	movb	$0, 544(%rax)
	movb	$0, 545(%rax)
	movq	$0, 616(%rax)
	movq	$0, 624(%rax)
	movb	$0, 648(%rax)
	movq	%rax, %rdx
	addq	$360, %rdx              # imm = 0x168
	leaq	-144(%rbp), %rdi
	movq	%rdi, -312(%rbp)        # 8-byte Spill
	movq	%rax, -320(%rbp)        # 8-byte Spill
	movq	%rdx, -328(%rbp)        # 8-byte Spill
	callq	_ZNSaIcEC1Ev@PLT
.Ltmp41:
	leaq	.L.str.9(%rip), %rsi
	leaq	-40(%rbp), %rdi
	movq	-312(%rbp), %rdx        # 8-byte Reload
	callq	_ZNSt7__cxx1112basic_stringIcSt11char_traitsIcESaIcEEC1EPKcRKS3_@PLT
.Ltmp42:
	jmp	.LBB16_1
.LBB16_1:
	leaq	-152(%rbp), %rax
	movq	%rax, %rdi
	movq	%rax, -336(%rbp)        # 8-byte Spill
	callq	_ZNSaIcEC1Ev@PLT
.Ltmp44:
	leaq	.L.str.10(%rip), %rsi
	leaq	-72(%rbp), %rdi
	movq	-336(%rbp), %rdx        # 8-byte Reload
	callq	_ZNSt7__cxx1112basic_stringIcSt11char_traitsIcESaIcEEC1EPKcRKS3_@PLT
.Ltmp45:
	jmp	.LBB16_2
.LBB16_2:
.Ltmp47:
	leaq	-40(%rbp), %rsi
	leaq	-72(%rbp), %rdx
	movq	-328(%rbp), %rdi        # 8-byte Reload
	callq	_ZN2sf6Shader12loadFromFileERKNSt7__cxx1112basic_stringIcSt11char_traitsIcESaIcEEES8_@PLT
.Ltmp48:
	jmp	.LBB16_3
.LBB16_3:
	leaq	-72(%rbp), %rdi
	callq	_ZNSt7__cxx1112basic_stringIcSt11char_traitsIcESaIcEED1Ev@PLT
	leaq	-152(%rbp), %rdi
	callq	_ZNSaIcED1Ev@PLT
	leaq	-40(%rbp), %rdi
	callq	_ZNSt7__cxx1112basic_stringIcSt11char_traitsIcESaIcEED1Ev@PLT
	leaq	-144(%rbp), %rdi
	callq	_ZNSaIcED1Ev@PLT
	leaq	-184(%rbp), %rdi
	callq	_ZN2sf5ImageC1Ev@PLT
.Ltmp50:
	leaq	-216(%rbp), %rdi
	callq	_ZN2sf5ImageC1Ev@PLT
.Ltmp51:
	jmp	.LBB16_4
.LBB16_4:
	leaq	-224(%rbp), %rax
	movq	%rax, %rdi
	movq	%rax, -344(%rbp)        # 8-byte Spill
	callq	_ZNSaIcEC1Ev@PLT
.Ltmp53:
	leaq	.L.str.11(%rip), %rsi
	leaq	-104(%rbp), %rdi
	movq	-344(%rbp), %rdx        # 8-byte Reload
	callq	_ZNSt7__cxx1112basic_stringIcSt11char_traitsIcESaIcEEC1EPKcRKS3_@PLT
.Ltmp54:
	jmp	.LBB16_5
.LBB16_5:
.Ltmp56:
	leaq	-184(%rbp), %rdi
	leaq	-104(%rbp), %rsi
	callq	_ZN2sf5Image12loadFromFileERKNSt7__cxx1112basic_stringIcSt11char_traitsIcESaIcEEE@PLT
.Ltmp57:
	jmp	.LBB16_6
.LBB16_6:
	leaq	-104(%rbp), %rdi
	callq	_ZNSt7__cxx1112basic_stringIcSt11char_traitsIcESaIcEED1Ev@PLT
	leaq	-224(%rbp), %rdi
	callq	_ZNSaIcED1Ev@PLT
	leaq	-232(%rbp), %rax
	movq	%rax, %rdi
	movq	%rax, -352(%rbp)        # 8-byte Spill
	callq	_ZNSaIcEC1Ev@PLT
.Ltmp59:
	leaq	.L.str.12(%rip), %rsi
	leaq	-136(%rbp), %rdi
	movq	-352(%rbp), %rdx        # 8-byte Reload
	callq	_ZNSt7__cxx1112basic_stringIcSt11char_traitsIcESaIcEEC1EPKcRKS3_@PLT
.Ltmp60:
	jmp	.LBB16_7
.LBB16_7:
.Ltmp62:
	leaq	-216(%rbp), %rdi
	leaq	-136(%rbp), %rsi
	callq	_ZN2sf5Image12loadFromFileERKNSt7__cxx1112basic_stringIcSt11char_traitsIcESaIcEEE@PLT
.Ltmp63:
	jmp	.LBB16_8
.LBB16_8:
	leaq	-136(%rbp), %rdi
	callq	_ZNSt7__cxx1112basic_stringIcSt11char_traitsIcESaIcEED1Ev@PLT
	leaq	-232(%rbp), %rdi
	callq	_ZNSaIcED1Ev@PLT
.Ltmp65:
	leaq	-184(%rbp), %rdi
	callq	_ZN2sf5Image14flipVerticallyEv@PLT
.Ltmp66:
	jmp	.LBB16_9
.LBB16_9:
.Ltmp67:
	leaq	-216(%rbp), %rdi
	callq	_ZN2sf5Image14flipVerticallyEv@PLT
.Ltmp68:
	jmp	.LBB16_10
.LBB16_10:
	movq	-320(%rbp), %rax        # 8-byte Reload
	addq	$464, %rax              # imm = 0x1D0
.Ltmp69:
	leaq	-248(%rbp), %rdi
	movq	%rax, -360(%rbp)        # 8-byte Spill
	callq	_ZN2sf4RectIiEC2Ev
.Ltmp70:
	jmp	.LBB16_11
.LBB16_11:
.Ltmp71:
	leaq	-184(%rbp), %rsi
	leaq	-248(%rbp), %rdx
	movq	-360(%rbp), %rdi        # 8-byte Reload
	callq	_ZN2sf7Texture13loadFromImageERKNS_5ImageERKNS_4RectIiEE@PLT
.Ltmp72:
	jmp	.LBB16_12
.LBB16_12:
	movq	-320(%rbp), %rax        # 8-byte Reload
	addq	$504, %rax              # imm = 0x1F8
.Ltmp73:
	leaq	-264(%rbp), %rdi
	movq	%rax, -368(%rbp)        # 8-byte Spill
	callq	_ZN2sf4RectIiEC2Ev
.Ltmp74:
	jmp	.LBB16_13
.LBB16_13:
.Ltmp75:
	leaq	-216(%rbp), %rsi
	leaq	-264(%rbp), %rdx
	movq	-368(%rbp), %rdi        # 8-byte Reload
	callq	_ZN2sf7Texture13loadFromImageERKNS_5ImageERKNS_4RectIiEE@PLT
.Ltmp76:
	jmp	.LBB16_14
.LBB16_14:
	movq	-320(%rbp), %rax        # 8-byte Reload
	addq	$656, %rax              # imm = 0x290
.Ltmp77:
	leaq	-272(%rbp), %rdi
	movl	$150, %ecx
	movl	$255, %r8d
	movl	%ecx, %esi
	movl	%ecx, %edx
	movq	%rax, -376(%rbp)        # 8-byte Spill
	callq	_ZN2sf5ColorC1Ehhhh@PLT
.Ltmp78:
	jmp	.LBB16_15
.LBB16_15:
.Ltmp79:
	leaq	-272(%rbp), %rsi
	movq	-376(%rbp), %rdi        # 8-byte Reload
	callq	_ZN2sf5Shape12setFillColorERKNS_5ColorE@PLT
.Ltmp80:
	jmp	.LBB16_16
.LBB16_16:
	movq	-320(%rbp), %rax        # 8-byte Reload
	movb	$0, 1024(%rax)
	movq	$0, 1000(%rax)
	movq	$0, 1008(%rax)
	movq	$0, 1016(%rax)
	leaq	-216(%rbp), %rdi
	callq	_ZN2sf5ImageD1Ev@PLT
	leaq	-184(%rbp), %rdi
	callq	_ZN2sf5ImageD1Ev@PLT
	movq	%fs:40, %rax
	movq	-8(%rbp), %rcx
	cmpq	%rcx, %rax
	jne	.LBB16_34
# %bb.17:
	addq	$384, %rsp              # imm = 0x180
	popq	%rbp
	.cfi_def_cfa %rsp, 8
	retq
.LBB16_18:
	.cfi_def_cfa %rbp, 16
.Ltmp43:
                                        # kill: def $edx killed $edx killed $rdx
	movq	%rax, -296(%rbp)
	movl	%edx, -300(%rbp)
	jmp	.LBB16_22
.LBB16_19:
.Ltmp46:
                                        # kill: def $edx killed $edx killed $rdx
	movq	%rax, -296(%rbp)
	movl	%edx, -300(%rbp)
	jmp	.LBB16_21
.LBB16_20:
.Ltmp49:
                                        # kill: def $edx killed $edx killed $rdx
	movq	%rax, -296(%rbp)
	movl	%edx, -300(%rbp)
	leaq	-72(%rbp), %rdi
	callq	_ZNSt7__cxx1112basic_stringIcSt11char_traitsIcESaIcEED1Ev@PLT
.LBB16_21:
	leaq	-152(%rbp), %rdi
	callq	_ZNSaIcED1Ev@PLT
	leaq	-40(%rbp), %rdi
	callq	_ZNSt7__cxx1112basic_stringIcSt11char_traitsIcESaIcEED1Ev@PLT
.LBB16_22:
	leaq	-144(%rbp), %rdi
	callq	_ZNSaIcED1Ev@PLT
	jmp	.LBB16_33
.LBB16_23:
.Ltmp52:
                                        # kill: def $edx killed $edx killed $rdx
	movq	%rax, -296(%rbp)
	movl	%edx, -300(%rbp)
	jmp	.LBB16_32
.LBB16_24:
.Ltmp55:
                                        # kill: def $edx killed $edx killed $rdx
	movq	%rax, -296(%rbp)
	movl	%edx, -300(%rbp)
	jmp	.LBB16_26
.LBB16_25:
.Ltmp58:
                                        # kill: def $edx killed $edx killed $rdx
	movq	%rax, -296(%rbp)
	movl	%edx, -300(%rbp)
	leaq	-104(%rbp), %rdi
	callq	_ZNSt7__cxx1112basic_stringIcSt11char_traitsIcESaIcEED1Ev@PLT
.LBB16_26:
	leaq	-224(%rbp), %rdi
	callq	_ZNSaIcED1Ev@PLT
	jmp	.LBB16_31
.LBB16_27:
.Ltmp61:
                                        # kill: def $edx killed $edx killed $rdx
	movq	%rax, -296(%rbp)
	movl	%edx, -300(%rbp)
	jmp	.LBB16_29
.LBB16_28:
.Ltmp64:
                                        # kill: def $edx killed $edx killed $rdx
	movq	%rax, -296(%rbp)
	movl	%edx, -300(%rbp)
	leaq	-136(%rbp), %rdi
	callq	_ZNSt7__cxx1112basic_stringIcSt11char_traitsIcESaIcEED1Ev@PLT
.LBB16_29:
	leaq	-232(%rbp), %rdi
	callq	_ZNSaIcED1Ev@PLT
	jmp	.LBB16_31
.LBB16_30:
.Ltmp81:
                                        # kill: def $edx killed $edx killed $rdx
	movq	%rax, -296(%rbp)
	movl	%edx, -300(%rbp)
.LBB16_31:
	leaq	-216(%rbp), %rdi
	callq	_ZN2sf5ImageD1Ev@PLT
.LBB16_32:
	leaq	-184(%rbp), %rdi
	callq	_ZN2sf5ImageD1Ev@PLT
.LBB16_33:
	movq	-296(%rbp), %rdi
	callq	_Unwind_Resume@PLT
.LBB16_34:
	callq	__stack_chk_fail@PLT
.Lfunc_end16:
	.size	_ZN5Plane5SetupEb, .Lfunc_end16-_ZN5Plane5SetupEb
	.cfi_endproc
	.section	.gcc_except_table,"a",@progbits
	.p2align	2
GCC_except_table16:
.Lexception3:
	.byte	255                     # @LPStart Encoding = omit
	.byte	255                     # @TType Encoding = omit
	.byte	1                       # Call site Encoding = uleb128
	.uleb128 .Lcst_end3-.Lcst_begin3
.Lcst_begin3:
	.uleb128 .Ltmp41-.Lfunc_begin3  # >> Call Site 1 <<
	.uleb128 .Ltmp42-.Ltmp41        #   Call between .Ltmp41 and .Ltmp42
	.uleb128 .Ltmp43-.Lfunc_begin3  #     jumps to .Ltmp43
	.byte	0                       #   On action: cleanup
	.uleb128 .Ltmp44-.Lfunc_begin3  # >> Call Site 2 <<
	.uleb128 .Ltmp45-.Ltmp44        #   Call between .Ltmp44 and .Ltmp45
	.uleb128 .Ltmp46-.Lfunc_begin3  #     jumps to .Ltmp46
	.byte	0                       #   On action: cleanup
	.uleb128 .Ltmp47-.Lfunc_begin3  # >> Call Site 3 <<
	.uleb128 .Ltmp48-.Ltmp47        #   Call between .Ltmp47 and .Ltmp48
	.uleb128 .Ltmp49-.Lfunc_begin3  #     jumps to .Ltmp49
	.byte	0                       #   On action: cleanup
	.uleb128 .Ltmp48-.Lfunc_begin3  # >> Call Site 4 <<
	.uleb128 .Ltmp50-.Ltmp48        #   Call between .Ltmp48 and .Ltmp50
	.byte	0                       #     has no landing pad
	.byte	0                       #   On action: cleanup
	.uleb128 .Ltmp50-.Lfunc_begin3  # >> Call Site 5 <<
	.uleb128 .Ltmp51-.Ltmp50        #   Call between .Ltmp50 and .Ltmp51
	.uleb128 .Ltmp52-.Lfunc_begin3  #     jumps to .Ltmp52
	.byte	0                       #   On action: cleanup
	.uleb128 .Ltmp53-.Lfunc_begin3  # >> Call Site 6 <<
	.uleb128 .Ltmp54-.Ltmp53        #   Call between .Ltmp53 and .Ltmp54
	.uleb128 .Ltmp55-.Lfunc_begin3  #     jumps to .Ltmp55
	.byte	0                       #   On action: cleanup
	.uleb128 .Ltmp56-.Lfunc_begin3  # >> Call Site 7 <<
	.uleb128 .Ltmp57-.Ltmp56        #   Call between .Ltmp56 and .Ltmp57
	.uleb128 .Ltmp58-.Lfunc_begin3  #     jumps to .Ltmp58
	.byte	0                       #   On action: cleanup
	.uleb128 .Ltmp59-.Lfunc_begin3  # >> Call Site 8 <<
	.uleb128 .Ltmp60-.Ltmp59        #   Call between .Ltmp59 and .Ltmp60
	.uleb128 .Ltmp61-.Lfunc_begin3  #     jumps to .Ltmp61
	.byte	0                       #   On action: cleanup
	.uleb128 .Ltmp62-.Lfunc_begin3  # >> Call Site 9 <<
	.uleb128 .Ltmp63-.Ltmp62        #   Call between .Ltmp62 and .Ltmp63
	.uleb128 .Ltmp64-.Lfunc_begin3  #     jumps to .Ltmp64
	.byte	0                       #   On action: cleanup
	.uleb128 .Ltmp65-.Lfunc_begin3  # >> Call Site 10 <<
	.uleb128 .Ltmp80-.Ltmp65        #   Call between .Ltmp65 and .Ltmp80
	.uleb128 .Ltmp81-.Lfunc_begin3  #     jumps to .Ltmp81
	.byte	0                       #   On action: cleanup
	.uleb128 .Ltmp80-.Lfunc_begin3  # >> Call Site 11 <<
	.uleb128 .Lfunc_end16-.Ltmp80   #   Call between .Ltmp80 and .Lfunc_end16
	.byte	0                       #     has no landing pad
	.byte	0                       #   On action: cleanup
.Lcst_end3:
	.p2align	2
                                        # -- End function
	.section	.text._ZNKSt6vectorIP10CollectionSaIS1_EE4sizeEv,"axG",@progbits,_ZNKSt6vectorIP10CollectionSaIS1_EE4sizeEv,comdat
	.weak	_ZNKSt6vectorIP10CollectionSaIS1_EE4sizeEv # -- Begin function _ZNKSt6vectorIP10CollectionSaIS1_EE4sizeEv
	.p2align	4, 0x90
	.type	_ZNKSt6vectorIP10CollectionSaIS1_EE4sizeEv,@function
_ZNKSt6vectorIP10CollectionSaIS1_EE4sizeEv: # @_ZNKSt6vectorIP10CollectionSaIS1_EE4sizeEv
	.cfi_startproc
# %bb.0:
	pushq	%rbp
	.cfi_def_cfa_offset 16
	.cfi_offset %rbp, -16
	movq	%rsp, %rbp
	.cfi_def_cfa_register %rbp
	movq	%rdi, -8(%rbp)
	movq	-8(%rbp), %rax
	movq	8(%rax), %rcx
	movq	(%rax), %rax
	subq	%rax, %rcx
	sarq	$3, %rcx
	movq	%rcx, %rax
	popq	%rbp
	.cfi_def_cfa %rsp, 8
	retq
.Lfunc_end17:
	.size	_ZNKSt6vectorIP10CollectionSaIS1_EE4sizeEv, .Lfunc_end17-_ZNKSt6vectorIP10CollectionSaIS1_EE4sizeEv
	.cfi_endproc
                                        # -- End function
	.section	.text._ZNSt6vectorIP10CollectionSaIS1_EEixEm,"axG",@progbits,_ZNSt6vectorIP10CollectionSaIS1_EEixEm,comdat
	.weak	_ZNSt6vectorIP10CollectionSaIS1_EEixEm # -- Begin function _ZNSt6vectorIP10CollectionSaIS1_EEixEm
	.p2align	4, 0x90
	.type	_ZNSt6vectorIP10CollectionSaIS1_EEixEm,@function
_ZNSt6vectorIP10CollectionSaIS1_EEixEm: # @_ZNSt6vectorIP10CollectionSaIS1_EEixEm
	.cfi_startproc
# %bb.0:
	pushq	%rbp
	.cfi_def_cfa_offset 16
	.cfi_offset %rbp, -16
	movq	%rsp, %rbp
	.cfi_def_cfa_register %rbp
	movq	%rdi, -8(%rbp)
	movq	%rsi, -16(%rbp)
	movq	-8(%rbp), %rax
	movq	(%rax), %rax
	movq	-16(%rbp), %rcx
	shlq	$3, %rcx
	addq	%rcx, %rax
	popq	%rbp
	.cfi_def_cfa %rsp, 8
	retq
.Lfunc_end18:
	.size	_ZNSt6vectorIP10CollectionSaIS1_EEixEm, .Lfunc_end18-_ZNSt6vectorIP10CollectionSaIS1_EEixEm
	.cfi_endproc
                                        # -- End function
	.section	.text._ZNSt6vectorIP10CollectionSaIS1_EE5clearEv,"axG",@progbits,_ZNSt6vectorIP10CollectionSaIS1_EE5clearEv,comdat
	.weak	_ZNSt6vectorIP10CollectionSaIS1_EE5clearEv # -- Begin function _ZNSt6vectorIP10CollectionSaIS1_EE5clearEv
	.p2align	4, 0x90
	.type	_ZNSt6vectorIP10CollectionSaIS1_EE5clearEv,@function
_ZNSt6vectorIP10CollectionSaIS1_EE5clearEv: # @_ZNSt6vectorIP10CollectionSaIS1_EE5clearEv
	.cfi_startproc
# %bb.0:
	pushq	%rbp
	.cfi_def_cfa_offset 16
	.cfi_offset %rbp, -16
	movq	%rsp, %rbp
	.cfi_def_cfa_register %rbp
	subq	$16, %rsp
	movq	%rdi, -8(%rbp)
	movq	-8(%rbp), %rax
	movq	(%rax), %rsi
	movq	%rax, %rdi
	callq	_ZNSt6vectorIP10CollectionSaIS1_EE15_M_erase_at_endEPS1_
	addq	$16, %rsp
	popq	%rbp
	.cfi_def_cfa %rsp, 8
	retq
.Lfunc_end19:
	.size	_ZNSt6vectorIP10CollectionSaIS1_EE5clearEv, .Lfunc_end19-_ZNSt6vectorIP10CollectionSaIS1_EE5clearEv
	.cfi_endproc
                                        # -- End function
	.section	.text._ZNSt6vectorIP10CollectionSaIS1_EE9push_backEOS1_,"axG",@progbits,_ZNSt6vectorIP10CollectionSaIS1_EE9push_backEOS1_,comdat
	.weak	_ZNSt6vectorIP10CollectionSaIS1_EE9push_backEOS1_ # -- Begin function _ZNSt6vectorIP10CollectionSaIS1_EE9push_backEOS1_
	.p2align	4, 0x90
	.type	_ZNSt6vectorIP10CollectionSaIS1_EE9push_backEOS1_,@function
_ZNSt6vectorIP10CollectionSaIS1_EE9push_backEOS1_: # @_ZNSt6vectorIP10CollectionSaIS1_EE9push_backEOS1_
	.cfi_startproc
# %bb.0:
	pushq	%rbp
	.cfi_def_cfa_offset 16
	.cfi_offset %rbp, -16
	movq	%rsp, %rbp
	.cfi_def_cfa_register %rbp
	subq	$32, %rsp
	movq	%rdi, -8(%rbp)
	movq	%rsi, -16(%rbp)
	movq	-8(%rbp), %rdi
	movq	-16(%rbp), %rax
	movq	%rdi, -24(%rbp)         # 8-byte Spill
	movq	%rax, %rdi
	callq	_ZSt4moveIRP10CollectionEONSt16remove_referenceIT_E4typeEOS4_
	movq	-24(%rbp), %rdi         # 8-byte Reload
	movq	%rax, %rsi
	callq	_ZNSt6vectorIP10CollectionSaIS1_EE12emplace_backIJS1_EEEvDpOT_
	addq	$32, %rsp
	popq	%rbp
	.cfi_def_cfa %rsp, 8
	retq
.Lfunc_end20:
	.size	_ZNSt6vectorIP10CollectionSaIS1_EE9push_backEOS1_, .Lfunc_end20-_ZNSt6vectorIP10CollectionSaIS1_EE9push_backEOS1_
	.cfi_endproc
                                        # -- End function
	.section	.text._ZNKSt6vectorIP10CollectionSaIS1_EEixEm,"axG",@progbits,_ZNKSt6vectorIP10CollectionSaIS1_EEixEm,comdat
	.weak	_ZNKSt6vectorIP10CollectionSaIS1_EEixEm # -- Begin function _ZNKSt6vectorIP10CollectionSaIS1_EEixEm
	.p2align	4, 0x90
	.type	_ZNKSt6vectorIP10CollectionSaIS1_EEixEm,@function
_ZNKSt6vectorIP10CollectionSaIS1_EEixEm: # @_ZNKSt6vectorIP10CollectionSaIS1_EEixEm
	.cfi_startproc
# %bb.0:
	pushq	%rbp
	.cfi_def_cfa_offset 16
	.cfi_offset %rbp, -16
	movq	%rsp, %rbp
	.cfi_def_cfa_register %rbp
	movq	%rdi, -8(%rbp)
	movq	%rsi, -16(%rbp)
	movq	-8(%rbp), %rax
	movq	(%rax), %rax
	movq	-16(%rbp), %rcx
	shlq	$3, %rcx
	addq	%rcx, %rax
	popq	%rbp
	.cfi_def_cfa %rsp, 8
	retq
.Lfunc_end21:
	.size	_ZNKSt6vectorIP10CollectionSaIS1_EEixEm, .Lfunc_end21-_ZNKSt6vectorIP10CollectionSaIS1_EEixEm
	.cfi_endproc
                                        # -- End function
	.section	.text._ZN2sf4TextD2Ev,"axG",@progbits,_ZN2sf4TextD2Ev,comdat
	.weak	_ZN2sf4TextD2Ev         # -- Begin function _ZN2sf4TextD2Ev
	.p2align	4, 0x90
	.type	_ZN2sf4TextD2Ev,@function
_ZN2sf4TextD2Ev:                        # @_ZN2sf4TextD2Ev
	.cfi_startproc
# %bb.0:
	pushq	%rbp
	.cfi_def_cfa_offset 16
	.cfi_offset %rbp, -16
	movq	%rsp, %rbp
	.cfi_def_cfa_register %rbp
	subq	$16, %rsp
	movq	_ZTVN2sf4TextE@GOTPCREL(%rip), %rax
	movq	%rax, %rcx
	addq	$56, %rcx
	addq	$16, %rax
	movq	%rdi, -8(%rbp)
	movq	-8(%rbp), %rdx
	movq	%rax, (%rdx)
	movq	%rcx, 8(%rdx)
	movq	%rdx, %rax
	addq	$296, %rax              # imm = 0x128
	movq	%rax, %rdi
	movq	%rdx, -16(%rbp)         # 8-byte Spill
	callq	_ZN2sf11VertexArrayD2Ev
	movq	-16(%rbp), %rax         # 8-byte Reload
	addq	$256, %rax              # imm = 0x100
	movq	%rax, %rdi
	callq	_ZN2sf11VertexArrayD2Ev
	movq	-16(%rbp), %rax         # 8-byte Reload
	addq	$184, %rax
	movq	%rax, %rdi
	callq	_ZN2sf6StringD2Ev
	movq	-16(%rbp), %rax         # 8-byte Reload
	addq	$8, %rax
	movq	%rax, %rdi
	callq	_ZN2sf13TransformableD2Ev@PLT
	movq	-16(%rbp), %rax         # 8-byte Reload
	movq	%rax, %rdi
	callq	_ZN2sf8DrawableD2Ev
	addq	$16, %rsp
	popq	%rbp
	.cfi_def_cfa %rsp, 8
	retq
.Lfunc_end22:
	.size	_ZN2sf4TextD2Ev, .Lfunc_end22-_ZN2sf4TextD2Ev
	.cfi_endproc
                                        # -- End function
	.section	.text._ZNSt6vectorIP10CollectionSaIS1_EED2Ev,"axG",@progbits,_ZNSt6vectorIP10CollectionSaIS1_EED2Ev,comdat
	.weak	_ZNSt6vectorIP10CollectionSaIS1_EED2Ev # -- Begin function _ZNSt6vectorIP10CollectionSaIS1_EED2Ev
	.p2align	4, 0x90
	.type	_ZNSt6vectorIP10CollectionSaIS1_EED2Ev,@function
_ZNSt6vectorIP10CollectionSaIS1_EED2Ev: # @_ZNSt6vectorIP10CollectionSaIS1_EED2Ev
.Lfunc_begin4:
	.cfi_startproc
	.cfi_personality 155, DW.ref.__gxx_personality_v0
	.cfi_lsda 27, .Lexception4
# %bb.0:
	pushq	%rbp
	.cfi_def_cfa_offset 16
	.cfi_offset %rbp, -16
	movq	%rsp, %rbp
	.cfi_def_cfa_register %rbp
	subq	$48, %rsp
	movq	%rdi, -8(%rbp)
	movq	-8(%rbp), %rax
	movq	(%rax), %rdi
	movq	8(%rax), %rsi
	movq	%rdi, -32(%rbp)         # 8-byte Spill
	movq	%rax, %rdi
	movq	%rax, -40(%rbp)         # 8-byte Spill
	movq	%rsi, -48(%rbp)         # 8-byte Spill
	callq	_ZNSt12_Vector_baseIP10CollectionSaIS1_EE19_M_get_Tp_allocatorEv
.Ltmp82:
	movq	-32(%rbp), %rdi         # 8-byte Reload
	movq	-48(%rbp), %rsi         # 8-byte Reload
	movq	%rax, %rdx
	callq	_ZSt8_DestroyIPP10CollectionS1_EvT_S3_RSaIT0_E
.Ltmp83:
	jmp	.LBB23_1
.LBB23_1:
	movq	-40(%rbp), %rax         # 8-byte Reload
	movq	%rax, %rdi
	callq	_ZNSt12_Vector_baseIP10CollectionSaIS1_EED2Ev
	addq	$48, %rsp
	popq	%rbp
	.cfi_def_cfa %rsp, 8
	retq
.LBB23_2:
	.cfi_def_cfa %rbp, 16
.Ltmp84:
                                        # kill: def $edx killed $edx killed $rdx
	movq	%rax, -16(%rbp)
	movl	%edx, -20(%rbp)
	movq	-40(%rbp), %rax         # 8-byte Reload
	movq	%rax, %rdi
	callq	_ZNSt12_Vector_baseIP10CollectionSaIS1_EED2Ev
# %bb.3:
	movq	-16(%rbp), %rdi
	callq	__clang_call_terminate
.Lfunc_end23:
	.size	_ZNSt6vectorIP10CollectionSaIS1_EED2Ev, .Lfunc_end23-_ZNSt6vectorIP10CollectionSaIS1_EED2Ev
	.cfi_endproc
	.section	.gcc_except_table,"a",@progbits
	.p2align	2
GCC_except_table23:
.Lexception4:
	.byte	255                     # @LPStart Encoding = omit
	.byte	156                     # @TType Encoding = indirect pcrel sdata8
	.uleb128 .Lttbase1-.Lttbaseref1
.Lttbaseref1:
	.byte	1                       # Call site Encoding = uleb128
	.uleb128 .Lcst_end4-.Lcst_begin4
.Lcst_begin4:
	.uleb128 .Ltmp82-.Lfunc_begin4  # >> Call Site 1 <<
	.uleb128 .Ltmp83-.Ltmp82        #   Call between .Ltmp82 and .Ltmp83
	.uleb128 .Ltmp84-.Lfunc_begin4  #     jumps to .Ltmp84
	.byte	1                       #   On action: 1
.Lcst_end4:
	.byte	1                       # >> Action Record 1 <<
                                        #   Catch TypeInfo 1
	.byte	0                       #   No further actions
	.p2align	2
                                        # >> Catch TypeInfos <<
	.quad	0                       # TypeInfo 1
.Lttbase1:
	.p2align	2
                                        # -- End function
	.section	.text._ZNSt6vectorIbSaIbEED2Ev,"axG",@progbits,_ZNSt6vectorIbSaIbEED2Ev,comdat
	.weak	_ZNSt6vectorIbSaIbEED2Ev # -- Begin function _ZNSt6vectorIbSaIbEED2Ev
	.p2align	4, 0x90
	.type	_ZNSt6vectorIbSaIbEED2Ev,@function
_ZNSt6vectorIbSaIbEED2Ev:               # @_ZNSt6vectorIbSaIbEED2Ev
	.cfi_startproc
# %bb.0:
	pushq	%rbp
	.cfi_def_cfa_offset 16
	.cfi_offset %rbp, -16
	movq	%rsp, %rbp
	.cfi_def_cfa_register %rbp
	subq	$16, %rsp
	movq	%rdi, -8(%rbp)
	movq	-8(%rbp), %rax
	movq	%rax, %rdi
	callq	_ZNSt13_Bvector_baseISaIbEED2Ev
	addq	$16, %rsp
	popq	%rbp
	.cfi_def_cfa %rsp, 8
	retq
.Lfunc_end24:
	.size	_ZNSt6vectorIbSaIbEED2Ev, .Lfunc_end24-_ZNSt6vectorIbSaIbEED2Ev
	.cfi_endproc
                                        # -- End function
	.section	.text._ZN2sf14RectangleShapeD2Ev,"axG",@progbits,_ZN2sf14RectangleShapeD2Ev,comdat
	.weak	_ZN2sf14RectangleShapeD2Ev # -- Begin function _ZN2sf14RectangleShapeD2Ev
	.p2align	4, 0x90
	.type	_ZN2sf14RectangleShapeD2Ev,@function
_ZN2sf14RectangleShapeD2Ev:             # @_ZN2sf14RectangleShapeD2Ev
	.cfi_startproc
# %bb.0:
	pushq	%rbp
	.cfi_def_cfa_offset 16
	.cfi_offset %rbp, -16
	movq	%rsp, %rbp
	.cfi_def_cfa_register %rbp
	subq	$16, %rsp
	movq	%rdi, -8(%rbp)
	movq	-8(%rbp), %rax
	movq	%rax, %rdi
	callq	_ZN2sf5ShapeD2Ev@PLT
	addq	$16, %rsp
	popq	%rbp
	.cfi_def_cfa %rsp, 8
	retq
.Lfunc_end25:
	.size	_ZN2sf14RectangleShapeD2Ev, .Lfunc_end25-_ZN2sf14RectangleShapeD2Ev
	.cfi_endproc
                                        # -- End function
	.section	.text._ZNSt8functionIFvhEED2Ev,"axG",@progbits,_ZNSt8functionIFvhEED2Ev,comdat
	.weak	_ZNSt8functionIFvhEED2Ev # -- Begin function _ZNSt8functionIFvhEED2Ev
	.p2align	4, 0x90
	.type	_ZNSt8functionIFvhEED2Ev,@function
_ZNSt8functionIFvhEED2Ev:               # @_ZNSt8functionIFvhEED2Ev
	.cfi_startproc
# %bb.0:
	pushq	%rbp
	.cfi_def_cfa_offset 16
	.cfi_offset %rbp, -16
	movq	%rsp, %rbp
	.cfi_def_cfa_register %rbp
	subq	$16, %rsp
	movq	%rdi, -8(%rbp)
	movq	-8(%rbp), %rax
	movq	%rax, %rdi
	callq	_ZNSt14_Function_baseD2Ev
	addq	$16, %rsp
	popq	%rbp
	.cfi_def_cfa %rsp, 8
	retq
.Lfunc_end26:
	.size	_ZNSt8functionIFvhEED2Ev, .Lfunc_end26-_ZNSt8functionIFvhEED2Ev
	.cfi_endproc
                                        # -- End function
	.section	.text._ZNSt6vectorIN2sf7TextureESaIS1_EED2Ev,"axG",@progbits,_ZNSt6vectorIN2sf7TextureESaIS1_EED2Ev,comdat
	.weak	_ZNSt6vectorIN2sf7TextureESaIS1_EED2Ev # -- Begin function _ZNSt6vectorIN2sf7TextureESaIS1_EED2Ev
	.p2align	4, 0x90
	.type	_ZNSt6vectorIN2sf7TextureESaIS1_EED2Ev,@function
_ZNSt6vectorIN2sf7TextureESaIS1_EED2Ev: # @_ZNSt6vectorIN2sf7TextureESaIS1_EED2Ev
.Lfunc_begin5:
	.cfi_startproc
	.cfi_personality 155, DW.ref.__gxx_personality_v0
	.cfi_lsda 27, .Lexception5
# %bb.0:
	pushq	%rbp
	.cfi_def_cfa_offset 16
	.cfi_offset %rbp, -16
	movq	%rsp, %rbp
	.cfi_def_cfa_register %rbp
	subq	$48, %rsp
	movq	%rdi, -8(%rbp)
	movq	-8(%rbp), %rax
	movq	(%rax), %rdi
	movq	8(%rax), %rsi
	movq	%rdi, -32(%rbp)         # 8-byte Spill
	movq	%rax, %rdi
	movq	%rax, -40(%rbp)         # 8-byte Spill
	movq	%rsi, -48(%rbp)         # 8-byte Spill
	callq	_ZNSt12_Vector_baseIN2sf7TextureESaIS1_EE19_M_get_Tp_allocatorEv
.Ltmp85:
	movq	-32(%rbp), %rdi         # 8-byte Reload
	movq	-48(%rbp), %rsi         # 8-byte Reload
	movq	%rax, %rdx
	callq	_ZSt8_DestroyIPN2sf7TextureES1_EvT_S3_RSaIT0_E
.Ltmp86:
	jmp	.LBB27_1
.LBB27_1:
	movq	-40(%rbp), %rax         # 8-byte Reload
	movq	%rax, %rdi
	callq	_ZNSt12_Vector_baseIN2sf7TextureESaIS1_EED2Ev
	addq	$48, %rsp
	popq	%rbp
	.cfi_def_cfa %rsp, 8
	retq
.LBB27_2:
	.cfi_def_cfa %rbp, 16
.Ltmp87:
                                        # kill: def $edx killed $edx killed $rdx
	movq	%rax, -16(%rbp)
	movl	%edx, -20(%rbp)
	movq	-40(%rbp), %rax         # 8-byte Reload
	movq	%rax, %rdi
	callq	_ZNSt12_Vector_baseIN2sf7TextureESaIS1_EED2Ev
# %bb.3:
	movq	-16(%rbp), %rdi
	callq	__clang_call_terminate
.Lfunc_end27:
	.size	_ZNSt6vectorIN2sf7TextureESaIS1_EED2Ev, .Lfunc_end27-_ZNSt6vectorIN2sf7TextureESaIS1_EED2Ev
	.cfi_endproc
	.section	.gcc_except_table,"a",@progbits
	.p2align	2
GCC_except_table27:
.Lexception5:
	.byte	255                     # @LPStart Encoding = omit
	.byte	156                     # @TType Encoding = indirect pcrel sdata8
	.uleb128 .Lttbase2-.Lttbaseref2
.Lttbaseref2:
	.byte	1                       # Call site Encoding = uleb128
	.uleb128 .Lcst_end5-.Lcst_begin5
.Lcst_begin5:
	.uleb128 .Ltmp85-.Lfunc_begin5  # >> Call Site 1 <<
	.uleb128 .Ltmp86-.Ltmp85        #   Call between .Ltmp85 and .Ltmp86
	.uleb128 .Ltmp87-.Lfunc_begin5  #     jumps to .Ltmp87
	.byte	1                       #   On action: 1
.Lcst_end5:
	.byte	1                       # >> Action Record 1 <<
                                        #   Catch TypeInfo 1
	.byte	0                       #   No further actions
	.p2align	2
                                        # >> Catch TypeInfos <<
	.quad	0                       # TypeInfo 1
.Lttbase2:
	.p2align	2
                                        # -- End function
	.section	.text._ZNSt6vectorIN2sf5ImageESaIS1_EED2Ev,"axG",@progbits,_ZNSt6vectorIN2sf5ImageESaIS1_EED2Ev,comdat
	.weak	_ZNSt6vectorIN2sf5ImageESaIS1_EED2Ev # -- Begin function _ZNSt6vectorIN2sf5ImageESaIS1_EED2Ev
	.p2align	4, 0x90
	.type	_ZNSt6vectorIN2sf5ImageESaIS1_EED2Ev,@function
_ZNSt6vectorIN2sf5ImageESaIS1_EED2Ev:   # @_ZNSt6vectorIN2sf5ImageESaIS1_EED2Ev
.Lfunc_begin6:
	.cfi_startproc
	.cfi_personality 155, DW.ref.__gxx_personality_v0
	.cfi_lsda 27, .Lexception6
# %bb.0:
	pushq	%rbp
	.cfi_def_cfa_offset 16
	.cfi_offset %rbp, -16
	movq	%rsp, %rbp
	.cfi_def_cfa_register %rbp
	subq	$48, %rsp
	movq	%rdi, -8(%rbp)
	movq	-8(%rbp), %rax
	movq	(%rax), %rdi
	movq	8(%rax), %rsi
	movq	%rdi, -32(%rbp)         # 8-byte Spill
	movq	%rax, %rdi
	movq	%rax, -40(%rbp)         # 8-byte Spill
	movq	%rsi, -48(%rbp)         # 8-byte Spill
	callq	_ZNSt12_Vector_baseIN2sf5ImageESaIS1_EE19_M_get_Tp_allocatorEv
.Ltmp88:
	movq	-32(%rbp), %rdi         # 8-byte Reload
	movq	-48(%rbp), %rsi         # 8-byte Reload
	movq	%rax, %rdx
	callq	_ZSt8_DestroyIPN2sf5ImageES1_EvT_S3_RSaIT0_E
.Ltmp89:
	jmp	.LBB28_1
.LBB28_1:
	movq	-40(%rbp), %rax         # 8-byte Reload
	movq	%rax, %rdi
	callq	_ZNSt12_Vector_baseIN2sf5ImageESaIS1_EED2Ev
	addq	$48, %rsp
	popq	%rbp
	.cfi_def_cfa %rsp, 8
	retq
.LBB28_2:
	.cfi_def_cfa %rbp, 16
.Ltmp90:
                                        # kill: def $edx killed $edx killed $rdx
	movq	%rax, -16(%rbp)
	movl	%edx, -20(%rbp)
	movq	-40(%rbp), %rax         # 8-byte Reload
	movq	%rax, %rdi
	callq	_ZNSt12_Vector_baseIN2sf5ImageESaIS1_EED2Ev
# %bb.3:
	movq	-16(%rbp), %rdi
	callq	__clang_call_terminate
.Lfunc_end28:
	.size	_ZNSt6vectorIN2sf5ImageESaIS1_EED2Ev, .Lfunc_end28-_ZNSt6vectorIN2sf5ImageESaIS1_EED2Ev
	.cfi_endproc
	.section	.gcc_except_table,"a",@progbits
	.p2align	2
GCC_except_table28:
.Lexception6:
	.byte	255                     # @LPStart Encoding = omit
	.byte	156                     # @TType Encoding = indirect pcrel sdata8
	.uleb128 .Lttbase3-.Lttbaseref3
.Lttbaseref3:
	.byte	1                       # Call site Encoding = uleb128
	.uleb128 .Lcst_end6-.Lcst_begin6
.Lcst_begin6:
	.uleb128 .Ltmp88-.Lfunc_begin6  # >> Call Site 1 <<
	.uleb128 .Ltmp89-.Ltmp88        #   Call between .Ltmp88 and .Ltmp89
	.uleb128 .Ltmp90-.Lfunc_begin6  #     jumps to .Ltmp90
	.byte	1                       #   On action: 1
.Lcst_end6:
	.byte	1                       # >> Action Record 1 <<
                                        #   Catch TypeInfo 1
	.byte	0                       #   No further actions
	.p2align	2
                                        # >> Catch TypeInfos <<
	.quad	0                       # TypeInfo 1
.Lttbase3:
	.p2align	2
                                        # -- End function
	.section	.text._ZNSt6vectorIN2sf9TransformESaIS1_EED2Ev,"axG",@progbits,_ZNSt6vectorIN2sf9TransformESaIS1_EED2Ev,comdat
	.weak	_ZNSt6vectorIN2sf9TransformESaIS1_EED2Ev # -- Begin function _ZNSt6vectorIN2sf9TransformESaIS1_EED2Ev
	.p2align	4, 0x90
	.type	_ZNSt6vectorIN2sf9TransformESaIS1_EED2Ev,@function
_ZNSt6vectorIN2sf9TransformESaIS1_EED2Ev: # @_ZNSt6vectorIN2sf9TransformESaIS1_EED2Ev
.Lfunc_begin7:
	.cfi_startproc
	.cfi_personality 155, DW.ref.__gxx_personality_v0
	.cfi_lsda 27, .Lexception7
# %bb.0:
	pushq	%rbp
	.cfi_def_cfa_offset 16
	.cfi_offset %rbp, -16
	movq	%rsp, %rbp
	.cfi_def_cfa_register %rbp
	subq	$48, %rsp
	movq	%rdi, -8(%rbp)
	movq	-8(%rbp), %rax
	movq	(%rax), %rdi
	movq	8(%rax), %rsi
	movq	%rdi, -32(%rbp)         # 8-byte Spill
	movq	%rax, %rdi
	movq	%rax, -40(%rbp)         # 8-byte Spill
	movq	%rsi, -48(%rbp)         # 8-byte Spill
	callq	_ZNSt12_Vector_baseIN2sf9TransformESaIS1_EE19_M_get_Tp_allocatorEv
.Ltmp91:
	movq	-32(%rbp), %rdi         # 8-byte Reload
	movq	-48(%rbp), %rsi         # 8-byte Reload
	movq	%rax, %rdx
	callq	_ZSt8_DestroyIPN2sf9TransformES1_EvT_S3_RSaIT0_E
.Ltmp92:
	jmp	.LBB29_1
.LBB29_1:
	movq	-40(%rbp), %rax         # 8-byte Reload
	movq	%rax, %rdi
	callq	_ZNSt12_Vector_baseIN2sf9TransformESaIS1_EED2Ev
	addq	$48, %rsp
	popq	%rbp
	.cfi_def_cfa %rsp, 8
	retq
.LBB29_2:
	.cfi_def_cfa %rbp, 16
.Ltmp93:
                                        # kill: def $edx killed $edx killed $rdx
	movq	%rax, -16(%rbp)
	movl	%edx, -20(%rbp)
	movq	-40(%rbp), %rax         # 8-byte Reload
	movq	%rax, %rdi
	callq	_ZNSt12_Vector_baseIN2sf9TransformESaIS1_EED2Ev
# %bb.3:
	movq	-16(%rbp), %rdi
	callq	__clang_call_terminate
.Lfunc_end29:
	.size	_ZNSt6vectorIN2sf9TransformESaIS1_EED2Ev, .Lfunc_end29-_ZNSt6vectorIN2sf9TransformESaIS1_EED2Ev
	.cfi_endproc
	.section	.gcc_except_table,"a",@progbits
	.p2align	2
GCC_except_table29:
.Lexception7:
	.byte	255                     # @LPStart Encoding = omit
	.byte	156                     # @TType Encoding = indirect pcrel sdata8
	.uleb128 .Lttbase4-.Lttbaseref4
.Lttbaseref4:
	.byte	1                       # Call site Encoding = uleb128
	.uleb128 .Lcst_end7-.Lcst_begin7
.Lcst_begin7:
	.uleb128 .Ltmp91-.Lfunc_begin7  # >> Call Site 1 <<
	.uleb128 .Ltmp92-.Ltmp91        #   Call between .Ltmp91 and .Ltmp92
	.uleb128 .Ltmp93-.Lfunc_begin7  #     jumps to .Ltmp93
	.byte	1                       #   On action: 1
.Lcst_end7:
	.byte	1                       # >> Action Record 1 <<
                                        #   Catch TypeInfo 1
	.byte	0                       #   No further actions
	.p2align	2
                                        # >> Catch TypeInfos <<
	.quad	0                       # TypeInfo 1
.Lttbase4:
	.p2align	2
                                        # -- End function
	.section	.text._ZNSt6vectorIN2sf12VertexBufferESaIS1_EED2Ev,"axG",@progbits,_ZNSt6vectorIN2sf12VertexBufferESaIS1_EED2Ev,comdat
	.weak	_ZNSt6vectorIN2sf12VertexBufferESaIS1_EED2Ev # -- Begin function _ZNSt6vectorIN2sf12VertexBufferESaIS1_EED2Ev
	.p2align	4, 0x90
	.type	_ZNSt6vectorIN2sf12VertexBufferESaIS1_EED2Ev,@function
_ZNSt6vectorIN2sf12VertexBufferESaIS1_EED2Ev: # @_ZNSt6vectorIN2sf12VertexBufferESaIS1_EED2Ev
.Lfunc_begin8:
	.cfi_startproc
	.cfi_personality 155, DW.ref.__gxx_personality_v0
	.cfi_lsda 27, .Lexception8
# %bb.0:
	pushq	%rbp
	.cfi_def_cfa_offset 16
	.cfi_offset %rbp, -16
	movq	%rsp, %rbp
	.cfi_def_cfa_register %rbp
	subq	$48, %rsp
	movq	%rdi, -8(%rbp)
	movq	-8(%rbp), %rax
	movq	(%rax), %rdi
	movq	8(%rax), %rsi
	movq	%rdi, -32(%rbp)         # 8-byte Spill
	movq	%rax, %rdi
	movq	%rax, -40(%rbp)         # 8-byte Spill
	movq	%rsi, -48(%rbp)         # 8-byte Spill
	callq	_ZNSt12_Vector_baseIN2sf12VertexBufferESaIS1_EE19_M_get_Tp_allocatorEv
.Ltmp94:
	movq	-32(%rbp), %rdi         # 8-byte Reload
	movq	-48(%rbp), %rsi         # 8-byte Reload
	movq	%rax, %rdx
	callq	_ZSt8_DestroyIPN2sf12VertexBufferES1_EvT_S3_RSaIT0_E
.Ltmp95:
	jmp	.LBB30_1
.LBB30_1:
	movq	-40(%rbp), %rax         # 8-byte Reload
	movq	%rax, %rdi
	callq	_ZNSt12_Vector_baseIN2sf12VertexBufferESaIS1_EED2Ev
	addq	$48, %rsp
	popq	%rbp
	.cfi_def_cfa %rsp, 8
	retq
.LBB30_2:
	.cfi_def_cfa %rbp, 16
.Ltmp96:
                                        # kill: def $edx killed $edx killed $rdx
	movq	%rax, -16(%rbp)
	movl	%edx, -20(%rbp)
	movq	-40(%rbp), %rax         # 8-byte Reload
	movq	%rax, %rdi
	callq	_ZNSt12_Vector_baseIN2sf12VertexBufferESaIS1_EED2Ev
# %bb.3:
	movq	-16(%rbp), %rdi
	callq	__clang_call_terminate
.Lfunc_end30:
	.size	_ZNSt6vectorIN2sf12VertexBufferESaIS1_EED2Ev, .Lfunc_end30-_ZNSt6vectorIN2sf12VertexBufferESaIS1_EED2Ev
	.cfi_endproc
	.section	.gcc_except_table,"a",@progbits
	.p2align	2
GCC_except_table30:
.Lexception8:
	.byte	255                     # @LPStart Encoding = omit
	.byte	156                     # @TType Encoding = indirect pcrel sdata8
	.uleb128 .Lttbase5-.Lttbaseref5
.Lttbaseref5:
	.byte	1                       # Call site Encoding = uleb128
	.uleb128 .Lcst_end8-.Lcst_begin8
.Lcst_begin8:
	.uleb128 .Ltmp94-.Lfunc_begin8  # >> Call Site 1 <<
	.uleb128 .Ltmp95-.Ltmp94        #   Call between .Ltmp94 and .Ltmp95
	.uleb128 .Ltmp96-.Lfunc_begin8  #     jumps to .Ltmp96
	.byte	1                       #   On action: 1
.Lcst_end8:
	.byte	1                       # >> Action Record 1 <<
                                        #   Catch TypeInfo 1
	.byte	0                       #   No further actions
	.p2align	2
                                        # >> Catch TypeInfos <<
	.quad	0                       # TypeInfo 1
.Lttbase5:
	.p2align	2
                                        # -- End function
	.section	.text._ZNSt6vectorIS_IN2sf6VertexESaIS1_EESaIS3_EED2Ev,"axG",@progbits,_ZNSt6vectorIS_IN2sf6VertexESaIS1_EESaIS3_EED2Ev,comdat
	.weak	_ZNSt6vectorIS_IN2sf6VertexESaIS1_EESaIS3_EED2Ev # -- Begin function _ZNSt6vectorIS_IN2sf6VertexESaIS1_EESaIS3_EED2Ev
	.p2align	4, 0x90
	.type	_ZNSt6vectorIS_IN2sf6VertexESaIS1_EESaIS3_EED2Ev,@function
_ZNSt6vectorIS_IN2sf6VertexESaIS1_EESaIS3_EED2Ev: # @_ZNSt6vectorIS_IN2sf6VertexESaIS1_EESaIS3_EED2Ev
.Lfunc_begin9:
	.cfi_startproc
	.cfi_personality 155, DW.ref.__gxx_personality_v0
	.cfi_lsda 27, .Lexception9
# %bb.0:
	pushq	%rbp
	.cfi_def_cfa_offset 16
	.cfi_offset %rbp, -16
	movq	%rsp, %rbp
	.cfi_def_cfa_register %rbp
	subq	$48, %rsp
	movq	%rdi, -8(%rbp)
	movq	-8(%rbp), %rax
	movq	(%rax), %rdi
	movq	8(%rax), %rsi
	movq	%rdi, -32(%rbp)         # 8-byte Spill
	movq	%rax, %rdi
	movq	%rax, -40(%rbp)         # 8-byte Spill
	movq	%rsi, -48(%rbp)         # 8-byte Spill
	callq	_ZNSt12_Vector_baseISt6vectorIN2sf6VertexESaIS2_EESaIS4_EE19_M_get_Tp_allocatorEv
.Ltmp97:
	movq	-32(%rbp), %rdi         # 8-byte Reload
	movq	-48(%rbp), %rsi         # 8-byte Reload
	movq	%rax, %rdx
	callq	_ZSt8_DestroyIPSt6vectorIN2sf6VertexESaIS2_EES4_EvT_S6_RSaIT0_E
.Ltmp98:
	jmp	.LBB31_1
.LBB31_1:
	movq	-40(%rbp), %rax         # 8-byte Reload
	movq	%rax, %rdi
	callq	_ZNSt12_Vector_baseISt6vectorIN2sf6VertexESaIS2_EESaIS4_EED2Ev
	addq	$48, %rsp
	popq	%rbp
	.cfi_def_cfa %rsp, 8
	retq
.LBB31_2:
	.cfi_def_cfa %rbp, 16
.Ltmp99:
                                        # kill: def $edx killed $edx killed $rdx
	movq	%rax, -16(%rbp)
	movl	%edx, -20(%rbp)
	movq	-40(%rbp), %rax         # 8-byte Reload
	movq	%rax, %rdi
	callq	_ZNSt12_Vector_baseISt6vectorIN2sf6VertexESaIS2_EESaIS4_EED2Ev
# %bb.3:
	movq	-16(%rbp), %rdi
	callq	__clang_call_terminate
.Lfunc_end31:
	.size	_ZNSt6vectorIS_IN2sf6VertexESaIS1_EESaIS3_EED2Ev, .Lfunc_end31-_ZNSt6vectorIS_IN2sf6VertexESaIS1_EESaIS3_EED2Ev
	.cfi_endproc
	.section	.gcc_except_table,"a",@progbits
	.p2align	2
GCC_except_table31:
.Lexception9:
	.byte	255                     # @LPStart Encoding = omit
	.byte	156                     # @TType Encoding = indirect pcrel sdata8
	.uleb128 .Lttbase6-.Lttbaseref6
.Lttbaseref6:
	.byte	1                       # Call site Encoding = uleb128
	.uleb128 .Lcst_end9-.Lcst_begin9
.Lcst_begin9:
	.uleb128 .Ltmp97-.Lfunc_begin9  # >> Call Site 1 <<
	.uleb128 .Ltmp98-.Ltmp97        #   Call between .Ltmp97 and .Ltmp98
	.uleb128 .Ltmp99-.Lfunc_begin9  #     jumps to .Ltmp99
	.byte	1                       #   On action: 1
.Lcst_end9:
	.byte	1                       # >> Action Record 1 <<
                                        #   Catch TypeInfo 1
	.byte	0                       #   No further actions
	.p2align	2
                                        # >> Catch TypeInfos <<
	.quad	0                       # TypeInfo 1
.Lttbase6:
	.p2align	2
                                        # -- End function
	.section	.text._ZN11IRenderableD2Ev,"axG",@progbits,_ZN11IRenderableD2Ev,comdat
	.weak	_ZN11IRenderableD2Ev    # -- Begin function _ZN11IRenderableD2Ev
	.p2align	4, 0x90
	.type	_ZN11IRenderableD2Ev,@function
_ZN11IRenderableD2Ev:                   # @_ZN11IRenderableD2Ev
	.cfi_startproc
# %bb.0:
	pushq	%rbp
	.cfi_def_cfa_offset 16
	.cfi_offset %rbp, -16
	movq	%rsp, %rbp
	.cfi_def_cfa_register %rbp
	subq	$16, %rsp
	movq	%rdi, -8(%rbp)
	movq	-8(%rbp), %rax
	movq	%rax, %rdi
	callq	_ZN2sf8DrawableD2Ev
	addq	$16, %rsp
	popq	%rbp
	.cfi_def_cfa %rsp, 8
	retq
.Lfunc_end32:
	.size	_ZN11IRenderableD2Ev, .Lfunc_end32-_ZN11IRenderableD2Ev
	.cfi_endproc
                                        # -- End function
	.text
	.globl	_ZN5PlaneC2Eb           # -- Begin function _ZN5PlaneC2Eb
	.p2align	4, 0x90
	.type	_ZN5PlaneC2Eb,@function
_ZN5PlaneC2Eb:                          # @_ZN5PlaneC2Eb
.Lfunc_begin10:
	.cfi_startproc
	.cfi_personality 155, DW.ref.__gxx_personality_v0
	.cfi_lsda 27, .Lexception10
# %bb.0:
	pushq	%rbp
	.cfi_def_cfa_offset 16
	.cfi_offset %rbp, -16
	movq	%rsp, %rbp
	.cfi_def_cfa_register %rbp
	subq	$624, %rsp              # imm = 0x270
                                        # kill: def $sil killed $sil killed $esi
	movq	%fs:40, %rax
	movq	%rax, -8(%rbp)
	movq	%rdi, -448(%rbp)
	andb	$1, %sil
	movb	%sil, -449(%rbp)
	movq	-448(%rbp), %rax
	movq	%rax, %rdi
	movq	%rax, -480(%rbp)        # 8-byte Spill
	callq	_ZN14ITransformableC2Ev
	movq	-480(%rbp), %rax        # 8-byte Reload
	addq	$184, %rax
	movq	%rax, %rdi
	callq	_ZN11IRenderableC2Ev
	movq	-480(%rbp), %rax        # 8-byte Reload
	addq	$192, %rax
	movq	%rax, %rdi
	callq	_ZN15IMouseUpdatableC2Ev
	leaq	_ZTV5Plane+16(%rip), %rax
	movq	-480(%rbp), %rcx        # 8-byte Reload
	movq	%rax, (%rcx)
	leaq	_ZTV5Plane+72(%rip), %rax
	movq	%rax, 184(%rcx)
	leaq	_ZTV5Plane+120(%rip), %rax
	movq	%rax, 192(%rcx)
	addq	$200, %rcx
	movq	%rcx, %rdi
	movq	%rcx, -488(%rbp)        # 8-byte Spill
	callq	_ZNSt6vectorIS_IN2sf6VertexESaIS1_EESaIS3_EEC2Ev
	movq	-480(%rbp), %rax        # 8-byte Reload
	addq	$224, %rax
	movq	%rax, %rdi
	movq	%rax, -496(%rbp)        # 8-byte Spill
	callq	_ZNSt6vectorIN2sf12VertexBufferESaIS1_EEC2Ev
	movq	-480(%rbp), %rax        # 8-byte Reload
	addq	$248, %rax
	movq	%rax, %rdi
	movq	%rax, -504(%rbp)        # 8-byte Spill
	callq	_ZNSt6vectorIN2sf9TransformESaIS1_EEC2Ev
	movq	-480(%rbp), %rax        # 8-byte Reload
	addq	$272, %rax              # imm = 0x110
	movq	%rax, %rdi
	movq	%rax, -512(%rbp)        # 8-byte Spill
	callq	_ZNSt6vectorIN2sf5ImageESaIS1_EEC2Ev
	movq	-480(%rbp), %rax        # 8-byte Reload
	addq	$296, %rax              # imm = 0x128
	movq	%rax, %rdi
	movq	%rax, -520(%rbp)        # 8-byte Spill
	callq	_ZNSt6vectorIN2sf7TextureESaIS1_EEC2Ev
	movq	-480(%rbp), %rax        # 8-byte Reload
	addq	$320, %rax              # imm = 0x140
	movq	%rax, %rdi
	movq	%rax, -528(%rbp)        # 8-byte Spill
	callq	_ZNSt6vectorIbSaIbEEC2Ev
	movq	-480(%rbp), %rax        # 8-byte Reload
	addq	$360, %rax              # imm = 0x168
.Ltmp100:
	movq	%rax, %rdi
	movq	%rax, -536(%rbp)        # 8-byte Spill
	callq	_ZN2sf6ShaderC1Ev@PLT
.Ltmp101:
	jmp	.LBB33_1
.LBB33_1:
	movq	-480(%rbp), %rax        # 8-byte Reload
	addq	$464, %rax              # imm = 0x1D0
.Ltmp103:
	movq	%rax, %rdi
	movq	%rax, -544(%rbp)        # 8-byte Spill
	callq	_ZN2sf7TextureC1Ev@PLT
.Ltmp104:
	jmp	.LBB33_2
.LBB33_2:
	movq	-480(%rbp), %rax        # 8-byte Reload
	addq	$504, %rax              # imm = 0x1F8
.Ltmp106:
	movq	%rax, %rdi
	movq	%rax, -552(%rbp)        # 8-byte Spill
	callq	_ZN2sf7TextureC1Ev@PLT
.Ltmp107:
	jmp	.LBB33_3
.LBB33_3:
	movq	-480(%rbp), %rax        # 8-byte Reload
	addq	$584, %rax              # imm = 0x248
	movq	%rax, %rdi
	movq	%rax, -560(%rbp)        # 8-byte Spill
	callq	_ZNSt8functionIFvhEEC2Ev
	movq	-480(%rbp), %rax        # 8-byte Reload
	addq	$632, %rax              # imm = 0x278
.Ltmp109:
	movq	%rax, %rdi
	callq	_ZN2sf7Vector2IfEC2Ev
.Ltmp110:
	jmp	.LBB33_4
.LBB33_4:
	movq	-480(%rbp), %rax        # 8-byte Reload
	addq	$640, %rax              # imm = 0x280
.Ltmp111:
	movq	%rax, %rdi
	callq	_ZN2sf7Vector2IiEC2Ev
.Ltmp112:
	jmp	.LBB33_5
.LBB33_5:
	movq	-480(%rbp), %rax        # 8-byte Reload
	addq	$656, %rax              # imm = 0x290
.Ltmp113:
	leaq	-416(%rbp), %rdi
	vxorps	%xmm0, %xmm0, %xmm0
	vmovss	%xmm0, -564(%rbp)       # 4-byte Spill
	vmovss	-564(%rbp), %xmm1       # 4-byte Reload
                                        # xmm1 = mem[0],zero,zero,zero
	movq	%rax, -576(%rbp)        # 8-byte Spill
	callq	_ZN2sf7Vector2IfEC2Eff
.Ltmp114:
	jmp	.LBB33_6
.LBB33_6:
.Ltmp115:
	leaq	-416(%rbp), %rsi
	movq	-576(%rbp), %rdi        # 8-byte Reload
	callq	_ZN2sf14RectangleShapeC1ERKNS_7Vector2IfEE@PLT
.Ltmp116:
	jmp	.LBB33_7
.LBB33_7:
	movq	-480(%rbp), %rax        # 8-byte Reload
	addq	$1032, %rax             # imm = 0x408
	movq	%rax, %rdi
	movq	%rax, -584(%rbp)        # 8-byte Spill
	callq	_ZNSt6vectorIbSaIbEEC2Ev
	movq	-480(%rbp), %rax        # 8-byte Reload
	addq	$1072, %rax             # imm = 0x430
	movq	%rax, %rdi
	movq	%rax, -592(%rbp)        # 8-byte Spill
	callq	_ZNSt6vectorIP10CollectionSaIS1_EEC2Ev
	movq	-480(%rbp), %rax        # 8-byte Reload
	addq	$1096, %rax             # imm = 0x448
.Ltmp118:
	movq	%rax, %rdi
	callq	_ZN2sf7Vector2IiEC2Ev
.Ltmp119:
	jmp	.LBB33_8
.LBB33_8:
	movq	-480(%rbp), %rax        # 8-byte Reload
	addq	$1104, %rax             # imm = 0x450
.Ltmp120:
	movq	%rax, %rdi
	movq	%rax, -600(%rbp)        # 8-byte Spill
	callq	_ZN2sf4TextC1Ev@PLT
.Ltmp121:
	jmp	.LBB33_9
.LBB33_9:
	movq	-480(%rbp), %rax        # 8-byte Reload
	addq	$1476, %rax             # imm = 0x5C4
.Ltmp123:
	movq	%rax, %rdi
	callq	_ZN2sf4ViewC1Ev@PLT
.Ltmp124:
	jmp	.LBB33_10
.LBB33_10:
	movzbl	-449(%rbp), %eax
.Ltmp125:
	andl	$1, %eax
	movq	-480(%rbp), %rdi        # 8-byte Reload
	movl	%eax, %esi
	callq	_ZN5Plane5SetupEb
.Ltmp126:
	jmp	.LBB33_11
.LBB33_11:
	movq	-480(%rbp), %rax        # 8-byte Reload
	addq	$1072, %rax             # imm = 0x430
.Ltmp127:
	movl	$5, %esi
	movq	%rax, %rdi
	callq	_ZNSt6vectorIP10CollectionSaIS1_EE7reserveEm
.Ltmp128:
	jmp	.LBB33_12
.LBB33_12:
	movq	-480(%rbp), %rax        # 8-byte Reload
	addq	$1032, %rax             # imm = 0x408
.Ltmp129:
	movl	$5, %esi
	movq	%rax, %rdi
	callq	_ZNSt6vectorIbSaIbEE7reserveEm
.Ltmp130:
	jmp	.LBB33_13
.LBB33_13:
	movq	-480(%rbp), %rax        # 8-byte Reload
	addq	$200, %rax
.Ltmp131:
	movl	$5, %esi
	movq	%rax, %rdi
	callq	_ZNSt6vectorIS_IN2sf6VertexESaIS1_EESaIS3_EE7reserveEm
.Ltmp132:
	jmp	.LBB33_14
.LBB33_14:
	leaq	-424(%rbp), %rax
	movq	%rax, %rdi
	movq	%rax, -608(%rbp)        # 8-byte Spill
	callq	_ZNSt6localeC1Ev@PLT
.Ltmp133:
	leaq	.L.str(%rip), %rsi
	leaq	-408(%rbp), %rdi
	movq	-608(%rbp), %rdx        # 8-byte Reload
	callq	_ZN2sf6StringC1EPKcRKSt6locale@PLT
.Ltmp134:
	jmp	.LBB33_15
.LBB33_15:
.Ltmp136:
	movq	_ZN6Global4FontE@GOTPCREL(%rip), %rdx
	leaq	-376(%rbp), %rdi
	leaq	-408(%rbp), %rsi
	movl	$12, %ecx
	callq	_ZN2sf4TextC1ERKNS_6StringERKNS_4FontEj@PLT
.Ltmp137:
	jmp	.LBB33_16
.LBB33_16:
	movq	-480(%rbp), %rax        # 8-byte Reload
	addq	$1104, %rax             # imm = 0x450
.Ltmp139:
	leaq	-376(%rbp), %rsi
	movq	%rax, %rdi
	callq	_ZN2sf4TextaSEOS0_
.Ltmp140:
	jmp	.LBB33_17
.LBB33_17:
	leaq	-376(%rbp), %rdi
	callq	_ZN2sf4TextD2Ev
	leaq	-408(%rbp), %rdi
	callq	_ZN2sf6StringD2Ev
	leaq	-424(%rbp), %rdi
	callq	_ZNSt6localeD1Ev@PLT
	movq	-480(%rbp), %rax        # 8-byte Reload
	addq	$1104, %rax             # imm = 0x450
.Ltmp142:
	leaq	-432(%rbp), %rdi
	movl	$150, %ecx
	movl	$255, %r8d
	movl	%ecx, %esi
	movl	%ecx, %edx
	movq	%rax, -616(%rbp)        # 8-byte Spill
	callq	_ZN2sf5ColorC1Ehhhh@PLT
.Ltmp143:
	jmp	.LBB33_18
.LBB33_18:
.Ltmp144:
	leaq	-432(%rbp), %rsi
	movq	-616(%rbp), %rdi        # 8-byte Reload
	callq	_ZN2sf4Text12setFillColorERKNS_5ColorE@PLT
.Ltmp145:
	jmp	.LBB33_19
.LBB33_19:
	movq	-480(%rbp), %rax        # 8-byte Reload
	addq	$584, %rax              # imm = 0x248
.Ltmp146:
	leaq	-440(%rbp), %rsi
	movq	%rax, %rdi
	callq	_ZNSt8functionIFvhEEaSIZN5PlaneC1EbE3$_0EENSt9enable_ifIXsrNS1_9_CallableINSt5decayIT_E4typeESt15__invoke_resultIRSA_JhEEEE5valueERS1_E4typeEOS8_
.Ltmp147:
	jmp	.LBB33_20
.LBB33_20:
	movq	%fs:40, %rax
	movq	-8(%rbp), %rcx
	cmpq	%rcx, %rax
	jne	.LBB33_40
# %bb.21:
	addq	$624, %rsp              # imm = 0x270
	popq	%rbp
	.cfi_def_cfa %rsp, 8
	retq
.LBB33_22:
	.cfi_def_cfa %rbp, 16
.Ltmp102:
                                        # kill: def $edx killed $edx killed $rdx
	movq	%rax, -464(%rbp)
	movl	%edx, -468(%rbp)
	jmp	.LBB33_38
.LBB33_23:
.Ltmp105:
                                        # kill: def $edx killed $edx killed $rdx
	movq	%rax, -464(%rbp)
	movl	%edx, -468(%rbp)
	jmp	.LBB33_37
.LBB33_24:
.Ltmp108:
                                        # kill: def $edx killed $edx killed $rdx
	movq	%rax, -464(%rbp)
	movl	%edx, -468(%rbp)
	jmp	.LBB33_36
.LBB33_25:
.Ltmp117:
                                        # kill: def $edx killed $edx killed $rdx
	movq	%rax, -464(%rbp)
	movl	%edx, -468(%rbp)
	jmp	.LBB33_35
.LBB33_26:
.Ltmp122:
                                        # kill: def $edx killed $edx killed $rdx
	movq	%rax, -464(%rbp)
	movl	%edx, -468(%rbp)
	jmp	.LBB33_34
.LBB33_27:
.Ltmp148:
                                        # kill: def $edx killed $edx killed $rdx
	movq	%rax, -464(%rbp)
	movl	%edx, -468(%rbp)
	jmp	.LBB33_33
.LBB33_28:
.Ltmp135:
                                        # kill: def $edx killed $edx killed $rdx
	movq	%rax, -464(%rbp)
	movl	%edx, -468(%rbp)
	jmp	.LBB33_32
.LBB33_29:
.Ltmp138:
                                        # kill: def $edx killed $edx killed $rdx
	movq	%rax, -464(%rbp)
	movl	%edx, -468(%rbp)
	jmp	.LBB33_31
.LBB33_30:
.Ltmp141:
                                        # kill: def $edx killed $edx killed $rdx
	movq	%rax, -464(%rbp)
	movl	%edx, -468(%rbp)
	leaq	-376(%rbp), %rdi
	callq	_ZN2sf4TextD2Ev
.LBB33_31:
	leaq	-408(%rbp), %rdi
	callq	_ZN2sf6StringD2Ev
.LBB33_32:
	leaq	-424(%rbp), %rdi
	callq	_ZNSt6localeD1Ev@PLT
.LBB33_33:
	movq	-600(%rbp), %rdi        # 8-byte Reload
	callq	_ZN2sf4TextD2Ev
.LBB33_34:
	movq	-592(%rbp), %rdi        # 8-byte Reload
	callq	_ZNSt6vectorIP10CollectionSaIS1_EED2Ev
	movq	-584(%rbp), %rdi        # 8-byte Reload
	callq	_ZNSt6vectorIbSaIbEED2Ev
	movq	-576(%rbp), %rdi        # 8-byte Reload
	callq	_ZN2sf14RectangleShapeD2Ev
.LBB33_35:
	movq	-560(%rbp), %rdi        # 8-byte Reload
	callq	_ZNSt8functionIFvhEED2Ev
	movq	-552(%rbp), %rdi        # 8-byte Reload
	callq	_ZN2sf7TextureD1Ev@PLT
.LBB33_36:
	movq	-544(%rbp), %rdi        # 8-byte Reload
	callq	_ZN2sf7TextureD1Ev@PLT
.LBB33_37:
	movq	-536(%rbp), %rdi        # 8-byte Reload
	callq	_ZN2sf6ShaderD1Ev@PLT
.LBB33_38:
	movq	-528(%rbp), %rdi        # 8-byte Reload
	callq	_ZNSt6vectorIbSaIbEED2Ev
	movq	-520(%rbp), %rdi        # 8-byte Reload
	callq	_ZNSt6vectorIN2sf7TextureESaIS1_EED2Ev
	movq	-512(%rbp), %rdi        # 8-byte Reload
	callq	_ZNSt6vectorIN2sf5ImageESaIS1_EED2Ev
	movq	-504(%rbp), %rdi        # 8-byte Reload
	callq	_ZNSt6vectorIN2sf9TransformESaIS1_EED2Ev
	movq	-496(%rbp), %rdi        # 8-byte Reload
	callq	_ZNSt6vectorIN2sf12VertexBufferESaIS1_EED2Ev
	movq	-488(%rbp), %rdi        # 8-byte Reload
	callq	_ZNSt6vectorIS_IN2sf6VertexESaIS1_EESaIS3_EED2Ev
	movq	-480(%rbp), %rax        # 8-byte Reload
	addq	$184, %rax
	movq	%rax, %rdi
	callq	_ZN11IRenderableD2Ev
	movq	-480(%rbp), %rax        # 8-byte Reload
	movq	%rax, %rdi
	callq	_ZN14ITransformableD2Ev
# %bb.39:
	movq	-464(%rbp), %rdi
	callq	_Unwind_Resume@PLT
.LBB33_40:
	callq	__stack_chk_fail@PLT
.Lfunc_end33:
	.size	_ZN5PlaneC2Eb, .Lfunc_end33-_ZN5PlaneC2Eb
	.cfi_endproc
	.section	.gcc_except_table,"a",@progbits
	.p2align	2
GCC_except_table33:
.Lexception10:
	.byte	255                     # @LPStart Encoding = omit
	.byte	255                     # @TType Encoding = omit
	.byte	1                       # Call site Encoding = uleb128
	.uleb128 .Lcst_end10-.Lcst_begin10
.Lcst_begin10:
	.uleb128 .Lfunc_begin10-.Lfunc_begin10 # >> Call Site 1 <<
	.uleb128 .Ltmp100-.Lfunc_begin10 #   Call between .Lfunc_begin10 and .Ltmp100
	.byte	0                       #     has no landing pad
	.byte	0                       #   On action: cleanup
	.uleb128 .Ltmp100-.Lfunc_begin10 # >> Call Site 2 <<
	.uleb128 .Ltmp101-.Ltmp100      #   Call between .Ltmp100 and .Ltmp101
	.uleb128 .Ltmp102-.Lfunc_begin10 #     jumps to .Ltmp102
	.byte	0                       #   On action: cleanup
	.uleb128 .Ltmp103-.Lfunc_begin10 # >> Call Site 3 <<
	.uleb128 .Ltmp104-.Ltmp103      #   Call between .Ltmp103 and .Ltmp104
	.uleb128 .Ltmp105-.Lfunc_begin10 #     jumps to .Ltmp105
	.byte	0                       #   On action: cleanup
	.uleb128 .Ltmp106-.Lfunc_begin10 # >> Call Site 4 <<
	.uleb128 .Ltmp107-.Ltmp106      #   Call between .Ltmp106 and .Ltmp107
	.uleb128 .Ltmp108-.Lfunc_begin10 #     jumps to .Ltmp108
	.byte	0                       #   On action: cleanup
	.uleb128 .Ltmp109-.Lfunc_begin10 # >> Call Site 5 <<
	.uleb128 .Ltmp116-.Ltmp109      #   Call between .Ltmp109 and .Ltmp116
	.uleb128 .Ltmp117-.Lfunc_begin10 #     jumps to .Ltmp117
	.byte	0                       #   On action: cleanup
	.uleb128 .Ltmp118-.Lfunc_begin10 # >> Call Site 6 <<
	.uleb128 .Ltmp121-.Ltmp118      #   Call between .Ltmp118 and .Ltmp121
	.uleb128 .Ltmp122-.Lfunc_begin10 #     jumps to .Ltmp122
	.byte	0                       #   On action: cleanup
	.uleb128 .Ltmp123-.Lfunc_begin10 # >> Call Site 7 <<
	.uleb128 .Ltmp132-.Ltmp123      #   Call between .Ltmp123 and .Ltmp132
	.uleb128 .Ltmp148-.Lfunc_begin10 #     jumps to .Ltmp148
	.byte	0                       #   On action: cleanup
	.uleb128 .Ltmp133-.Lfunc_begin10 # >> Call Site 8 <<
	.uleb128 .Ltmp134-.Ltmp133      #   Call between .Ltmp133 and .Ltmp134
	.uleb128 .Ltmp135-.Lfunc_begin10 #     jumps to .Ltmp135
	.byte	0                       #   On action: cleanup
	.uleb128 .Ltmp136-.Lfunc_begin10 # >> Call Site 9 <<
	.uleb128 .Ltmp137-.Ltmp136      #   Call between .Ltmp136 and .Ltmp137
	.uleb128 .Ltmp138-.Lfunc_begin10 #     jumps to .Ltmp138
	.byte	0                       #   On action: cleanup
	.uleb128 .Ltmp139-.Lfunc_begin10 # >> Call Site 10 <<
	.uleb128 .Ltmp140-.Ltmp139      #   Call between .Ltmp139 and .Ltmp140
	.uleb128 .Ltmp141-.Lfunc_begin10 #     jumps to .Ltmp141
	.byte	0                       #   On action: cleanup
	.uleb128 .Ltmp142-.Lfunc_begin10 # >> Call Site 11 <<
	.uleb128 .Ltmp147-.Ltmp142      #   Call between .Ltmp142 and .Ltmp147
	.uleb128 .Ltmp148-.Lfunc_begin10 #     jumps to .Ltmp148
	.byte	0                       #   On action: cleanup
	.uleb128 .Ltmp147-.Lfunc_begin10 # >> Call Site 12 <<
	.uleb128 .Lfunc_end33-.Ltmp147  #   Call between .Ltmp147 and .Lfunc_end33
	.byte	0                       #     has no landing pad
	.byte	0                       #   On action: cleanup
.Lcst_end10:
	.p2align	2
                                        # -- End function
	.section	.text._ZNSt6vectorIP10CollectionSaIS1_EE7reserveEm,"axG",@progbits,_ZNSt6vectorIP10CollectionSaIS1_EE7reserveEm,comdat
	.weak	_ZNSt6vectorIP10CollectionSaIS1_EE7reserveEm # -- Begin function _ZNSt6vectorIP10CollectionSaIS1_EE7reserveEm
	.p2align	4, 0x90
	.type	_ZNSt6vectorIP10CollectionSaIS1_EE7reserveEm,@function
_ZNSt6vectorIP10CollectionSaIS1_EE7reserveEm: # @_ZNSt6vectorIP10CollectionSaIS1_EE7reserveEm
	.cfi_startproc
# %bb.0:
	pushq	%rbp
	.cfi_def_cfa_offset 16
	.cfi_offset %rbp, -16
	movq	%rsp, %rbp
	.cfi_def_cfa_register %rbp
	subq	$96, %rsp
	movq	%rdi, -8(%rbp)
	movq	%rsi, -16(%rbp)
	movq	-8(%rbp), %rax
	movq	-16(%rbp), %rcx
	movq	%rax, %rdi
	movq	%rax, -40(%rbp)         # 8-byte Spill
	movq	%rcx, -48(%rbp)         # 8-byte Spill
	callq	_ZNKSt6vectorIP10CollectionSaIS1_EE8max_sizeEv
	movq	-48(%rbp), %rcx         # 8-byte Reload
	cmpq	%rax, %rcx
	jbe	.LBB34_2
# %bb.1:
	leaq	.L.str.18(%rip), %rdi
	callq	_ZSt20__throw_length_errorPKc@PLT
.LBB34_2:
	movq	-40(%rbp), %rdi         # 8-byte Reload
	callq	_ZNKSt6vectorIP10CollectionSaIS1_EE8capacityEv
	cmpq	-16(%rbp), %rax
	jae	.LBB34_4
# %bb.3:
	movq	-40(%rbp), %rdi         # 8-byte Reload
	callq	_ZNKSt6vectorIP10CollectionSaIS1_EE4sizeEv
	movq	%rax, -24(%rbp)
	movq	-40(%rbp), %rax         # 8-byte Reload
	movq	-16(%rbp), %rsi
	movq	%rax, %rdi
	callq	_ZNSt12_Vector_baseIP10CollectionSaIS1_EE11_M_allocateEm
	movq	%rax, -32(%rbp)
	movq	-40(%rbp), %rax         # 8-byte Reload
	movq	(%rax), %rdi
	movq	8(%rax), %rsi
	movq	-32(%rbp), %rdx
	movq	%rdi, -56(%rbp)         # 8-byte Spill
	movq	%rax, %rdi
	movq	%rsi, -64(%rbp)         # 8-byte Spill
	movq	%rdx, -72(%rbp)         # 8-byte Spill
	callq	_ZNSt12_Vector_baseIP10CollectionSaIS1_EE19_M_get_Tp_allocatorEv
	movq	-56(%rbp), %rdi         # 8-byte Reload
	movq	-64(%rbp), %rsi         # 8-byte Reload
	movq	-72(%rbp), %rdx         # 8-byte Reload
	movq	%rax, %rcx
	callq	_ZNSt6vectorIP10CollectionSaIS1_EE11_S_relocateEPS1_S4_S4_RS2_
	movq	-40(%rbp), %rcx         # 8-byte Reload
	movq	-40(%rbp), %rdx         # 8-byte Reload
	movq	(%rdx), %rsi
	movq	16(%rdx), %rdi
	movq	(%rdx), %r8
	subq	%r8, %rdi
	sarq	$3, %rdi
	movq	%rdi, -80(%rbp)         # 8-byte Spill
	movq	%rcx, %rdi
	movq	-80(%rbp), %rdx         # 8-byte Reload
	movq	%rax, -88(%rbp)         # 8-byte Spill
	callq	_ZNSt12_Vector_baseIP10CollectionSaIS1_EE13_M_deallocateEPS1_m
	movq	-32(%rbp), %rax
	movq	-40(%rbp), %rcx         # 8-byte Reload
	movq	%rax, (%rcx)
	movq	-32(%rbp), %rax
	movq	-24(%rbp), %rdx
	shlq	$3, %rdx
	addq	%rdx, %rax
	movq	%rax, 8(%rcx)
	movq	(%rcx), %rax
	movq	-16(%rbp), %rdx
	shlq	$3, %rdx
	addq	%rdx, %rax
	movq	%rax, 16(%rcx)
.LBB34_4:
	addq	$96, %rsp
	popq	%rbp
	.cfi_def_cfa %rsp, 8
	retq
.Lfunc_end34:
	.size	_ZNSt6vectorIP10CollectionSaIS1_EE7reserveEm, .Lfunc_end34-_ZNSt6vectorIP10CollectionSaIS1_EE7reserveEm
	.cfi_endproc
                                        # -- End function
	.section	.text._ZNSt6vectorIbSaIbEE7reserveEm,"axG",@progbits,_ZNSt6vectorIbSaIbEE7reserveEm,comdat
	.weak	_ZNSt6vectorIbSaIbEE7reserveEm # -- Begin function _ZNSt6vectorIbSaIbEE7reserveEm
	.p2align	4, 0x90
	.type	_ZNSt6vectorIbSaIbEE7reserveEm,@function
_ZNSt6vectorIbSaIbEE7reserveEm:         # @_ZNSt6vectorIbSaIbEE7reserveEm
	.cfi_startproc
# %bb.0:
	pushq	%rbp
	.cfi_def_cfa_offset 16
	.cfi_offset %rbp, -16
	movq	%rsp, %rbp
	.cfi_def_cfa_register %rbp
	subq	$32, %rsp
	movq	%rdi, -8(%rbp)
	movq	%rsi, -16(%rbp)
	movq	-8(%rbp), %rax
	movq	-16(%rbp), %rcx
	movq	%rax, %rdi
	movq	%rax, -24(%rbp)         # 8-byte Spill
	movq	%rcx, -32(%rbp)         # 8-byte Spill
	callq	_ZNKSt6vectorIbSaIbEE8max_sizeEv
	movq	-32(%rbp), %rcx         # 8-byte Reload
	cmpq	%rax, %rcx
	jbe	.LBB35_2
# %bb.1:
	leaq	.L.str.18(%rip), %rdi
	callq	_ZSt20__throw_length_errorPKc@PLT
.LBB35_2:
	movq	-24(%rbp), %rdi         # 8-byte Reload
	callq	_ZNKSt6vectorIbSaIbEE8capacityEv
	cmpq	-16(%rbp), %rax
	jae	.LBB35_4
# %bb.3:
	movq	-16(%rbp), %rsi
	movq	-24(%rbp), %rdi         # 8-byte Reload
	callq	_ZNSt6vectorIbSaIbEE13_M_reallocateEm
.LBB35_4:
	addq	$32, %rsp
	popq	%rbp
	.cfi_def_cfa %rsp, 8
	retq
.Lfunc_end35:
	.size	_ZNSt6vectorIbSaIbEE7reserveEm, .Lfunc_end35-_ZNSt6vectorIbSaIbEE7reserveEm
	.cfi_endproc
                                        # -- End function
	.section	.text._ZNSt6vectorIS_IN2sf6VertexESaIS1_EESaIS3_EE7reserveEm,"axG",@progbits,_ZNSt6vectorIS_IN2sf6VertexESaIS1_EESaIS3_EE7reserveEm,comdat
	.weak	_ZNSt6vectorIS_IN2sf6VertexESaIS1_EESaIS3_EE7reserveEm # -- Begin function _ZNSt6vectorIS_IN2sf6VertexESaIS1_EESaIS3_EE7reserveEm
	.p2align	4, 0x90
	.type	_ZNSt6vectorIS_IN2sf6VertexESaIS1_EESaIS3_EE7reserveEm,@function
_ZNSt6vectorIS_IN2sf6VertexESaIS1_EESaIS3_EE7reserveEm: # @_ZNSt6vectorIS_IN2sf6VertexESaIS1_EESaIS3_EE7reserveEm
	.cfi_startproc
# %bb.0:
	pushq	%rbp
	.cfi_def_cfa_offset 16
	.cfi_offset %rbp, -16
	movq	%rsp, %rbp
	.cfi_def_cfa_register %rbp
	subq	$80, %rsp
	movq	%rdi, -8(%rbp)
	movq	%rsi, -16(%rbp)
	movq	-8(%rbp), %rax
	movq	-16(%rbp), %rcx
	movq	%rax, %rdi
	movq	%rax, -40(%rbp)         # 8-byte Spill
	movq	%rcx, -48(%rbp)         # 8-byte Spill
	callq	_ZNKSt6vectorIS_IN2sf6VertexESaIS1_EESaIS3_EE8max_sizeEv
	movq	-48(%rbp), %rcx         # 8-byte Reload
	cmpq	%rax, %rcx
	jbe	.LBB36_2
# %bb.1:
	leaq	.L.str.18(%rip), %rdi
	callq	_ZSt20__throw_length_errorPKc@PLT
.LBB36_2:
	movq	-40(%rbp), %rdi         # 8-byte Reload
	callq	_ZNKSt6vectorIS_IN2sf6VertexESaIS1_EESaIS3_EE8capacityEv
	cmpq	-16(%rbp), %rax
	jae	.LBB36_4
# %bb.3:
	movq	-40(%rbp), %rdi         # 8-byte Reload
	callq	_ZNKSt6vectorIS_IN2sf6VertexESaIS1_EESaIS3_EE4sizeEv
	movq	%rax, -24(%rbp)
	movq	-40(%rbp), %rax         # 8-byte Reload
	movq	-16(%rbp), %rsi
	movq	%rax, %rdi
	callq	_ZNSt12_Vector_baseISt6vectorIN2sf6VertexESaIS2_EESaIS4_EE11_M_allocateEm
	movq	%rax, -32(%rbp)
	movq	-40(%rbp), %rax         # 8-byte Reload
	movq	(%rax), %rdi
	movq	8(%rax), %rsi
	movq	-32(%rbp), %rdx
	movq	%rdi, -56(%rbp)         # 8-byte Spill
	movq	%rax, %rdi
	movq	%rsi, -64(%rbp)         # 8-byte Spill
	movq	%rdx, -72(%rbp)         # 8-byte Spill
	callq	_ZNSt12_Vector_baseISt6vectorIN2sf6VertexESaIS2_EESaIS4_EE19_M_get_Tp_allocatorEv
	movq	-56(%rbp), %rdi         # 8-byte Reload
	movq	-64(%rbp), %rsi         # 8-byte Reload
	movq	-72(%rbp), %rdx         # 8-byte Reload
	movq	%rax, %rcx
	callq	_ZNSt6vectorIS_IN2sf6VertexESaIS1_EESaIS3_EE11_S_relocateEPS3_S6_S6_RS4_
	movq	-40(%rbp), %rcx         # 8-byte Reload
	movq	-40(%rbp), %rdx         # 8-byte Reload
	movq	(%rdx), %rsi
	movq	16(%rdx), %rdi
	movq	(%rdx), %r8
	subq	%r8, %rdi
	movq	%rax, -80(%rbp)         # 8-byte Spill
	movq	%rdi, %rax
	cqto
	movl	$24, %edi
	idivq	%rdi
	movq	%rcx, %rdi
	movq	%rax, %rdx
	callq	_ZNSt12_Vector_baseISt6vectorIN2sf6VertexESaIS2_EESaIS4_EE13_M_deallocateEPS4_m
	movq	-32(%rbp), %rax
	movq	-40(%rbp), %rcx         # 8-byte Reload
	movq	%rax, (%rcx)
	movq	-32(%rbp), %rax
	imulq	$24, -24(%rbp), %rdx
	addq	%rdx, %rax
	movq	%rax, 8(%rcx)
	movq	(%rcx), %rax
	imulq	$24, -16(%rbp), %rdx
	addq	%rdx, %rax
	movq	%rax, 16(%rcx)
.LBB36_4:
	addq	$80, %rsp
	popq	%rbp
	.cfi_def_cfa %rsp, 8
	retq
.Lfunc_end36:
	.size	_ZNSt6vectorIS_IN2sf6VertexESaIS1_EESaIS3_EE7reserveEm, .Lfunc_end36-_ZNSt6vectorIS_IN2sf6VertexESaIS1_EESaIS3_EE7reserveEm
	.cfi_endproc
                                        # -- End function
	.section	.text._ZN2sf4TextaSEOS0_,"axG",@progbits,_ZN2sf4TextaSEOS0_,comdat
	.weak	_ZN2sf4TextaSEOS0_      # -- Begin function _ZN2sf4TextaSEOS0_
	.p2align	4, 0x90
	.type	_ZN2sf4TextaSEOS0_,@function
_ZN2sf4TextaSEOS0_:                     # @_ZN2sf4TextaSEOS0_
	.cfi_startproc
# %bb.0:
	pushq	%rbp
	.cfi_def_cfa_offset 16
	.cfi_offset %rbp, -16
	movq	%rsp, %rbp
	.cfi_def_cfa_register %rbp
	subq	$64, %rsp
	movq	%rdi, -8(%rbp)
	movq	%rsi, -16(%rbp)
	movq	-8(%rbp), %rax
	movq	%rax, %rcx
	movq	-16(%rbp), %rdx
	movq	%rcx, %rdi
	movq	%rdx, %rsi
	movq	%rax, -24(%rbp)         # 8-byte Spill
	callq	_ZN2sf8DrawableaSERKS0_
	movq	-24(%rbp), %rcx         # 8-byte Reload
	addq	$8, %rcx
	movq	-16(%rbp), %rdx
	addq	$8, %rdx
	movq	%rcx, %rdi
	movq	%rdx, %rsi
	movq	%rax, -32(%rbp)         # 8-byte Spill
	callq	_ZN2sf13TransformableaSERKS0_
	movq	-24(%rbp), %rcx         # 8-byte Reload
	addq	$184, %rcx
	movq	-16(%rbp), %rdx
	addq	$184, %rdx
	movq	%rcx, %rdi
	movq	%rdx, %rsi
	movq	%rax, -40(%rbp)         # 8-byte Spill
	callq	_ZN2sf6StringaSERKS0_@PLT
	movq	-24(%rbp), %rcx         # 8-byte Reload
	addq	$216, %rcx
	movq	-16(%rbp), %rdx
	addq	$216, %rdx
	movq	%rcx, %rdi
	movq	%rdx, %rsi
	movl	$36, %edx
	movq	%rax, -48(%rbp)         # 8-byte Spill
	callq	memcpy@PLT
	movq	-24(%rbp), %rax         # 8-byte Reload
	addq	$256, %rax              # imm = 0x100
	movq	-16(%rbp), %rcx
	addq	$256, %rcx              # imm = 0x100
	movq	%rax, %rdi
	movq	%rcx, %rsi
	callq	_ZN2sf11VertexArrayaSEOS0_
	movq	-24(%rbp), %rcx         # 8-byte Reload
	addq	$296, %rcx              # imm = 0x128
	movq	-16(%rbp), %rdx
	addq	$296, %rdx              # imm = 0x128
	movq	%rcx, %rdi
	movq	%rdx, %rsi
	movq	%rax, -56(%rbp)         # 8-byte Spill
	callq	_ZN2sf11VertexArrayaSEOS0_
	movq	-16(%rbp), %rcx
	movq	336(%rcx), %rdx
	movq	-24(%rbp), %rsi         # 8-byte Reload
	movq	%rdx, 336(%rsi)
	movq	344(%rcx), %rdx
	movq	%rdx, 344(%rsi)
	movq	352(%rcx), %rdx
	movq	%rdx, 352(%rsi)
	movq	360(%rcx), %rcx
	movq	%rcx, 360(%rsi)
	movq	%rax, -64(%rbp)         # 8-byte Spill
	movq	%rsi, %rax
	addq	$64, %rsp
	popq	%rbp
	.cfi_def_cfa %rsp, 8
	retq
.Lfunc_end37:
	.size	_ZN2sf4TextaSEOS0_, .Lfunc_end37-_ZN2sf4TextaSEOS0_
	.cfi_endproc
                                        # -- End function
	.section	.text._ZN2sf6StringD2Ev,"axG",@progbits,_ZN2sf6StringD2Ev,comdat
	.weak	_ZN2sf6StringD2Ev       # -- Begin function _ZN2sf6StringD2Ev
	.p2align	4, 0x90
	.type	_ZN2sf6StringD2Ev,@function
_ZN2sf6StringD2Ev:                      # @_ZN2sf6StringD2Ev
	.cfi_startproc
# %bb.0:
	pushq	%rbp
	.cfi_def_cfa_offset 16
	.cfi_offset %rbp, -16
	movq	%rsp, %rbp
	.cfi_def_cfa_register %rbp
	subq	$16, %rsp
	movq	%rdi, -8(%rbp)
	movq	-8(%rbp), %rdi
	callq	_ZNSt7__cxx1112basic_stringIjSt11char_traitsIjESaIjEED2Ev
	addq	$16, %rsp
	popq	%rbp
	.cfi_def_cfa %rsp, 8
	retq
.Lfunc_end38:
	.size	_ZN2sf6StringD2Ev, .Lfunc_end38-_ZN2sf6StringD2Ev
	.cfi_endproc
                                        # -- End function
	.text
	.p2align	4, 0x90         # -- Begin function _ZNSt8functionIFvhEEaSIZN5PlaneC1EbE3$_0EENSt9enable_ifIXsrNS1_9_CallableINSt5decayIT_E4typeESt15__invoke_resultIRSA_JhEEEE5valueERS1_E4typeEOS8_
	.type	_ZNSt8functionIFvhEEaSIZN5PlaneC1EbE3$_0EENSt9enable_ifIXsrNS1_9_CallableINSt5decayIT_E4typeESt15__invoke_resultIRSA_JhEEEE5valueERS1_E4typeEOS8_,@function
_ZNSt8functionIFvhEEaSIZN5PlaneC1EbE3$_0EENSt9enable_ifIXsrNS1_9_CallableINSt5decayIT_E4typeESt15__invoke_resultIRSA_JhEEEE5valueERS1_E4typeEOS8_: # @"_ZNSt8functionIFvhEEaSIZN5PlaneC1EbE3$_0EENSt9enable_ifIXsrNS1_9_CallableINSt5decayIT_E4typeESt15__invoke_resultIRSA_JhEEEE5valueERS1_E4typeEOS8_"
	.cfi_startproc
# %bb.0:
	pushq	%rbp
	.cfi_def_cfa_offset 16
	.cfi_offset %rbp, -16
	movq	%rsp, %rbp
	.cfi_def_cfa_register %rbp
	subq	$96, %rsp
	movq	%fs:40, %rax
	movq	%rax, -8(%rbp)
	movq	%rdi, -48(%rbp)
	movq	%rsi, -56(%rbp)
	movq	-48(%rbp), %rax
	movq	-56(%rbp), %rdi
	movq	%rax, -72(%rbp)         # 8-byte Spill
	callq	_ZSt7forwardIZN5PlaneC1EbE3$_0EOT_RNSt16remove_referenceIS2_E4typeE
	leaq	-40(%rbp), %rcx
	movq	%rcx, %rdi
	movq	%rax, -80(%rbp)         # 8-byte Spill
	movq	%rcx, -88(%rbp)         # 8-byte Spill
	callq	_ZNSt8functionIFvhEEC2IZN5PlaneC1EbE3$_0vvEET_
	movq	-88(%rbp), %rdi         # 8-byte Reload
	movq	-72(%rbp), %rsi         # 8-byte Reload
	callq	_ZNSt8functionIFvhEE4swapERS1_
	movq	-88(%rbp), %rdi         # 8-byte Reload
	callq	_ZNSt8functionIFvhEED2Ev
	movq	%fs:40, %rax
	movq	-8(%rbp), %rcx
	cmpq	%rcx, %rax
	jne	.LBB39_2
# %bb.1:
	movq	-72(%rbp), %rax         # 8-byte Reload
	addq	$96, %rsp
	popq	%rbp
	.cfi_def_cfa %rsp, 8
	retq
.LBB39_2:
	.cfi_def_cfa %rbp, 16
	callq	__stack_chk_fail@PLT
.Lfunc_end39:
	.size	_ZNSt8functionIFvhEEaSIZN5PlaneC1EbE3$_0EENSt9enable_ifIXsrNS1_9_CallableINSt5decayIT_E4typeESt15__invoke_resultIRSA_JhEEEE5valueERS1_E4typeEOS8_, .Lfunc_end39-_ZNSt8functionIFvhEEaSIZN5PlaneC1EbE3$_0EENSt9enable_ifIXsrNS1_9_CallableINSt5decayIT_E4typeESt15__invoke_resultIRSA_JhEEEE5valueERS1_E4typeEOS8_
	.cfi_endproc
                                        # -- End function
	.globl	_ZN5PlaneD2Ev           # -- Begin function _ZN5PlaneD2Ev
	.p2align	4, 0x90
	.type	_ZN5PlaneD2Ev,@function
_ZN5PlaneD2Ev:                          # @_ZN5PlaneD2Ev
	.cfi_startproc
# %bb.0:
	pushq	%rbp
	.cfi_def_cfa_offset 16
	.cfi_offset %rbp, -16
	movq	%rsp, %rbp
	.cfi_def_cfa_register %rbp
	subq	$48, %rsp
	leaq	_ZTV5Plane(%rip), %rax
	movq	%rax, %rcx
	addq	$120, %rcx
	movq	%rax, %rdx
	addq	$72, %rdx
	addq	$16, %rax
	movq	%rdi, -8(%rbp)
	movq	-8(%rbp), %rsi
	movq	%rax, (%rsi)
	movq	%rdx, 184(%rsi)
	movq	%rcx, 192(%rsi)
	movq	$0, -16(%rbp)
	movq	%rsi, -24(%rbp)         # 8-byte Spill
.LBB40_1:                               # =>This Inner Loop Header: Depth=1
	movq	-16(%rbp), %rax
	movq	-24(%rbp), %rcx         # 8-byte Reload
	addq	$1072, %rcx             # imm = 0x430
	movq	%rcx, %rdi
	movq	%rax, -32(%rbp)         # 8-byte Spill
	callq	_ZNKSt6vectorIP10CollectionSaIS1_EE4sizeEv
	movq	-32(%rbp), %rcx         # 8-byte Reload
	cmpq	%rax, %rcx
	jae	.LBB40_6
# %bb.2:                                #   in Loop: Header=BB40_1 Depth=1
	movq	-24(%rbp), %rax         # 8-byte Reload
	addq	$1072, %rax             # imm = 0x430
	movq	-16(%rbp), %rsi
	movq	%rax, %rdi
	callq	_ZNSt6vectorIP10CollectionSaIS1_EEixEm
	movq	(%rax), %rax
	cmpq	$0, %rax
	movq	%rax, -40(%rbp)         # 8-byte Spill
	je	.LBB40_4
# %bb.3:                                #   in Loop: Header=BB40_1 Depth=1
	movq	-40(%rbp), %rax         # 8-byte Reload
	movq	(%rax), %rcx
	movq	%rax, %rdi
	callq	*8(%rcx)
.LBB40_4:                               #   in Loop: Header=BB40_1 Depth=1
	jmp	.LBB40_5
.LBB40_5:                               #   in Loop: Header=BB40_1 Depth=1
	movq	-16(%rbp), %rax
	addq	$1, %rax
	movq	%rax, -16(%rbp)
	jmp	.LBB40_1
.LBB40_6:
	movq	-24(%rbp), %rax         # 8-byte Reload
	addq	$1104, %rax             # imm = 0x450
	movq	%rax, %rdi
	callq	_ZN2sf4TextD2Ev
	movq	-24(%rbp), %rax         # 8-byte Reload
	addq	$1072, %rax             # imm = 0x430
	movq	%rax, %rdi
	callq	_ZNSt6vectorIP10CollectionSaIS1_EED2Ev
	movq	-24(%rbp), %rax         # 8-byte Reload
	addq	$1032, %rax             # imm = 0x408
	movq	%rax, %rdi
	callq	_ZNSt6vectorIbSaIbEED2Ev
	movq	-24(%rbp), %rax         # 8-byte Reload
	addq	$656, %rax              # imm = 0x290
	movq	%rax, %rdi
	callq	_ZN2sf14RectangleShapeD2Ev
	movq	-24(%rbp), %rax         # 8-byte Reload
	addq	$584, %rax              # imm = 0x248
	movq	%rax, %rdi
	callq	_ZNSt8functionIFvhEED2Ev
	movq	-24(%rbp), %rax         # 8-byte Reload
	addq	$504, %rax              # imm = 0x1F8
	movq	%rax, %rdi
	callq	_ZN2sf7TextureD1Ev@PLT
	movq	-24(%rbp), %rax         # 8-byte Reload
	addq	$464, %rax              # imm = 0x1D0
	movq	%rax, %rdi
	callq	_ZN2sf7TextureD1Ev@PLT
	movq	-24(%rbp), %rax         # 8-byte Reload
	addq	$360, %rax              # imm = 0x168
	movq	%rax, %rdi
	callq	_ZN2sf6ShaderD1Ev@PLT
	movq	-24(%rbp), %rax         # 8-byte Reload
	addq	$320, %rax              # imm = 0x140
	movq	%rax, %rdi
	callq	_ZNSt6vectorIbSaIbEED2Ev
	movq	-24(%rbp), %rax         # 8-byte Reload
	addq	$296, %rax              # imm = 0x128
	movq	%rax, %rdi
	callq	_ZNSt6vectorIN2sf7TextureESaIS1_EED2Ev
	movq	-24(%rbp), %rax         # 8-byte Reload
	addq	$272, %rax              # imm = 0x110
	movq	%rax, %rdi
	callq	_ZNSt6vectorIN2sf5ImageESaIS1_EED2Ev
	movq	-24(%rbp), %rax         # 8-byte Reload
	addq	$248, %rax
	movq	%rax, %rdi
	callq	_ZNSt6vectorIN2sf9TransformESaIS1_EED2Ev
	movq	-24(%rbp), %rax         # 8-byte Reload
	addq	$224, %rax
	movq	%rax, %rdi
	callq	_ZNSt6vectorIN2sf12VertexBufferESaIS1_EED2Ev
	movq	-24(%rbp), %rax         # 8-byte Reload
	addq	$200, %rax
	movq	%rax, %rdi
	callq	_ZNSt6vectorIS_IN2sf6VertexESaIS1_EESaIS3_EED2Ev
	movq	-24(%rbp), %rax         # 8-byte Reload
	addq	$184, %rax
	movq	%rax, %rdi
	callq	_ZN11IRenderableD2Ev
	movq	-24(%rbp), %rax         # 8-byte Reload
	movq	%rax, %rdi
	callq	_ZN14ITransformableD2Ev
	addq	$48, %rsp
	popq	%rbp
	.cfi_def_cfa %rsp, 8
	retq
.Lfunc_end40:
	.size	_ZN5PlaneD2Ev, .Lfunc_end40-_ZN5PlaneD2Ev
	.cfi_endproc
                                        # -- End function
	.globl	_ZThn184_N5PlaneD1Ev    # -- Begin function _ZThn184_N5PlaneD1Ev
	.p2align	4, 0x90
	.type	_ZThn184_N5PlaneD1Ev,@function
_ZThn184_N5PlaneD1Ev:                   # @_ZThn184_N5PlaneD1Ev
	.cfi_startproc
# %bb.0:
	pushq	%rbp
	.cfi_def_cfa_offset 16
	.cfi_offset %rbp, -16
	movq	%rsp, %rbp
	.cfi_def_cfa_register %rbp
	movq	%rdi, -8(%rbp)
	movq	-8(%rbp), %rax
	addq	$-184, %rax
	movq	%rax, %rdi
	popq	%rbp
	.cfi_def_cfa %rsp, 8
	jmp	_ZN5PlaneD1Ev           # TAILCALL
.Lfunc_end41:
	.size	_ZThn184_N5PlaneD1Ev, .Lfunc_end41-_ZThn184_N5PlaneD1Ev
	.cfi_endproc
                                        # -- End function
	.globl	_ZN5PlaneD0Ev           # -- Begin function _ZN5PlaneD0Ev
	.p2align	4, 0x90
	.type	_ZN5PlaneD0Ev,@function
_ZN5PlaneD0Ev:                          # @_ZN5PlaneD0Ev
	.cfi_startproc
# %bb.0:
	pushq	%rbp
	.cfi_def_cfa_offset 16
	.cfi_offset %rbp, -16
	movq	%rsp, %rbp
	.cfi_def_cfa_register %rbp
	subq	$16, %rsp
	movq	%rdi, -8(%rbp)
	movq	-8(%rbp), %rax
	movq	%rax, %rdi
	movq	%rax, -16(%rbp)         # 8-byte Spill
	callq	_ZN5PlaneD1Ev
	movq	-16(%rbp), %rax         # 8-byte Reload
	movq	%rax, %rdi
	callq	_ZdlPv@PLT
	addq	$16, %rsp
	popq	%rbp
	.cfi_def_cfa %rsp, 8
	retq
.Lfunc_end42:
	.size	_ZN5PlaneD0Ev, .Lfunc_end42-_ZN5PlaneD0Ev
	.cfi_endproc
                                        # -- End function
	.globl	_ZThn184_N5PlaneD0Ev    # -- Begin function _ZThn184_N5PlaneD0Ev
	.p2align	4, 0x90
	.type	_ZThn184_N5PlaneD0Ev,@function
_ZThn184_N5PlaneD0Ev:                   # @_ZThn184_N5PlaneD0Ev
	.cfi_startproc
# %bb.0:
	pushq	%rbp
	.cfi_def_cfa_offset 16
	.cfi_offset %rbp, -16
	movq	%rsp, %rbp
	.cfi_def_cfa_register %rbp
	movq	%rdi, -8(%rbp)
	movq	-8(%rbp), %rax
	addq	$-184, %rax
	movq	%rax, %rdi
	popq	%rbp
	.cfi_def_cfa %rsp, 8
	jmp	_ZN5PlaneD0Ev           # TAILCALL
.Lfunc_end43:
	.size	_ZThn184_N5PlaneD0Ev, .Lfunc_end43-_ZThn184_N5PlaneD0Ev
	.cfi_endproc
                                        # -- End function
	.globl	_ZN5Plane13AddCollectionEP10Collectionb # -- Begin function _ZN5Plane13AddCollectionEP10Collectionb
	.p2align	4, 0x90
	.type	_ZN5Plane13AddCollectionEP10Collectionb,@function
_ZN5Plane13AddCollectionEP10Collectionb: # @_ZN5Plane13AddCollectionEP10Collectionb
	.cfi_startproc
# %bb.0:
	pushq	%rbp
	.cfi_def_cfa_offset 16
	.cfi_offset %rbp, -16
	movq	%rsp, %rbp
	.cfi_def_cfa_register %rbp
	subq	$64, %rsp
                                        # kill: def $dl killed $dl killed $edx
	movq	%fs:40, %rax
	movq	%rax, -8(%rbp)
	movq	%rdi, -24(%rbp)
	movq	%rsi, -16(%rbp)
	andb	$1, %dl
	movb	%dl, -25(%rbp)
	movq	-24(%rbp), %rax
	movq	%rax, %rcx
	addq	$1072, %rcx             # imm = 0x430
	leaq	-16(%rbp), %rsi
	movq	%rcx, %rdi
	movq	%rax, -40(%rbp)         # 8-byte Spill
	movq	%rcx, -48(%rbp)         # 8-byte Spill
	callq	_ZNSt6vectorIP10CollectionSaIS1_EE9push_backERKS1_
	movq	-40(%rbp), %rax         # 8-byte Reload
	addq	$1032, %rax             # imm = 0x408
	movzbl	-25(%rbp), %r8d
	andl	$1, %r8d
	movq	%rax, %rdi
	movl	%r8d, %esi
	callq	_ZNSt6vectorIbSaIbEE9push_backEb
	movq	-48(%rbp), %rdi         # 8-byte Reload
	callq	_ZNKSt6vectorIP10CollectionSaIS1_EE4sizeEv
                                        # kill: def $eax killed $eax killed $rax
	decl	%eax
	movzbl	-25(%rbp), %esi
	andl	$1, %esi
                                        # kill: def $ax killed $ax killed $eax
	movzwl	%ax, %r8d
	movq	-40(%rbp), %rdi         # 8-byte Reload
	movl	%esi, -52(%rbp)         # 4-byte Spill
	movl	%r8d, %esi
	movl	-52(%rbp), %edx         # 4-byte Reload
	callq	_ZN5Plane12CreateBufferEtb
	movq	%fs:40, %rcx
	movq	-8(%rbp), %rdi
	cmpq	%rdi, %rcx
	jne	.LBB44_2
# %bb.1:
	addq	$64, %rsp
	popq	%rbp
	.cfi_def_cfa %rsp, 8
	retq
.LBB44_2:
	.cfi_def_cfa %rbp, 16
	callq	__stack_chk_fail@PLT
.Lfunc_end44:
	.size	_ZN5Plane13AddCollectionEP10Collectionb, .Lfunc_end44-_ZN5Plane13AddCollectionEP10Collectionb
	.cfi_endproc
                                        # -- End function
	.section	.text._ZNSt6vectorIP10CollectionSaIS1_EE9push_backERKS1_,"axG",@progbits,_ZNSt6vectorIP10CollectionSaIS1_EE9push_backERKS1_,comdat
	.weak	_ZNSt6vectorIP10CollectionSaIS1_EE9push_backERKS1_ # -- Begin function _ZNSt6vectorIP10CollectionSaIS1_EE9push_backERKS1_
	.p2align	4, 0x90
	.type	_ZNSt6vectorIP10CollectionSaIS1_EE9push_backERKS1_,@function
_ZNSt6vectorIP10CollectionSaIS1_EE9push_backERKS1_: # @_ZNSt6vectorIP10CollectionSaIS1_EE9push_backERKS1_
	.cfi_startproc
# %bb.0:
	pushq	%rbp
	.cfi_def_cfa_offset 16
	.cfi_offset %rbp, -16
	movq	%rsp, %rbp
	.cfi_def_cfa_register %rbp
	subq	$32, %rsp
	movq	%rdi, -8(%rbp)
	movq	%rsi, -16(%rbp)
	movq	-8(%rbp), %rax
	movq	8(%rax), %rcx
	cmpq	16(%rax), %rcx
	movq	%rax, -32(%rbp)         # 8-byte Spill
	je	.LBB45_2
# %bb.1:
	movq	-32(%rbp), %rax         # 8-byte Reload
	movq	-32(%rbp), %rcx         # 8-byte Reload
	movq	8(%rcx), %rsi
	movq	-16(%rbp), %rdx
	movq	%rax, %rdi
	callq	_ZNSt16allocator_traitsISaIP10CollectionEE9constructIS1_JRKS1_EEEvRS2_PT_DpOT0_
	movq	-32(%rbp), %rax         # 8-byte Reload
	movq	8(%rax), %rcx
	addq	$8, %rcx
	movq	%rcx, 8(%rax)
	jmp	.LBB45_3
.LBB45_2:
	movq	-32(%rbp), %rdi         # 8-byte Reload
	callq	_ZNSt6vectorIP10CollectionSaIS1_EE3endEv
	movq	%rax, -24(%rbp)
	movq	-16(%rbp), %rdx
	movq	-24(%rbp), %rsi
	movq	-32(%rbp), %rdi         # 8-byte Reload
	callq	_ZNSt6vectorIP10CollectionSaIS1_EE17_M_realloc_insertIJRKS1_EEEvN9__gnu_cxx17__normal_iteratorIPS1_S3_EEDpOT_
.LBB45_3:
	addq	$32, %rsp
	popq	%rbp
	.cfi_def_cfa %rsp, 8
	retq
.Lfunc_end45:
	.size	_ZNSt6vectorIP10CollectionSaIS1_EE9push_backERKS1_, .Lfunc_end45-_ZNSt6vectorIP10CollectionSaIS1_EE9push_backERKS1_
	.cfi_endproc
                                        # -- End function
	.section	.text._ZNSt6vectorIbSaIbEE9push_backEb,"axG",@progbits,_ZNSt6vectorIbSaIbEE9push_backEb,comdat
	.weak	_ZNSt6vectorIbSaIbEE9push_backEb # -- Begin function _ZNSt6vectorIbSaIbEE9push_backEb
	.p2align	4, 0x90
	.type	_ZNSt6vectorIbSaIbEE9push_backEb,@function
_ZNSt6vectorIbSaIbEE9push_backEb:       # @_ZNSt6vectorIbSaIbEE9push_backEb
	.cfi_startproc
# %bb.0:
	pushq	%rbp
	.cfi_def_cfa_offset 16
	.cfi_offset %rbp, -16
	movq	%rsp, %rbp
	.cfi_def_cfa_register %rbp
	subq	$96, %rsp
                                        # kill: def $sil killed $sil killed $esi
	movq	%fs:40, %rax
	movq	%rax, -8(%rbp)
	movq	%rdi, -64(%rbp)
	andb	$1, %sil
	movb	%sil, -65(%rbp)
	movq	-64(%rbp), %rax
	movq	16(%rax), %rcx
	movq	%rax, %rdx
	movq	%rdx, %rdi
	movq	%rax, -80(%rbp)         # 8-byte Spill
	movq	%rcx, -88(%rbp)         # 8-byte Spill
	callq	_ZNKSt13_Bvector_baseISaIbEE13_Bvector_impl11_M_end_addrEv
	movq	-88(%rbp), %rcx         # 8-byte Reload
	cmpq	%rax, %rcx
	je	.LBB46_2
# %bb.1:
	xorl	%esi, %esi
	movb	-65(%rbp), %al
	movq	-80(%rbp), %rcx         # 8-byte Reload
	addq	$16, %rcx
	movq	%rcx, %rdi
	movb	%al, -89(%rbp)          # 1-byte Spill
	callq	_ZNSt13_Bit_iteratorppEi
	movq	%rax, -24(%rbp)
	movl	%edx, -16(%rbp)
	leaq	-24(%rbp), %rdi
	callq	_ZNKSt13_Bit_iteratordeEv
	movq	%rax, -56(%rbp)
	movq	%rdx, -48(%rbp)
	movb	-89(%rbp), %r8b         # 1-byte Reload
	andb	$1, %r8b
	leaq	-56(%rbp), %rdi
	movzbl	%r8b, %esi
	callq	_ZNSt14_Bit_referenceaSEb
	jmp	.LBB46_3
.LBB46_2:
	movq	-80(%rbp), %rdi         # 8-byte Reload
	callq	_ZNSt6vectorIbSaIbEE3endEv
	movq	%rax, -40(%rbp)
	movl	%edx, -32(%rbp)
	movb	-65(%rbp), %cl
	movq	-40(%rbp), %rsi
	movl	-32(%rbp), %edx
	andb	$1, %cl
	movq	-80(%rbp), %rdi         # 8-byte Reload
	movzbl	%cl, %ecx
	callq	_ZNSt6vectorIbSaIbEE13_M_insert_auxESt13_Bit_iteratorb
.LBB46_3:
	movq	%fs:40, %rax
	movq	-8(%rbp), %rcx
	cmpq	%rcx, %rax
	jne	.LBB46_5
# %bb.4:
	addq	$96, %rsp
	popq	%rbp
	.cfi_def_cfa %rsp, 8
	retq
.LBB46_5:
	.cfi_def_cfa %rbp, 16
	callq	__stack_chk_fail@PLT
.Lfunc_end46:
	.size	_ZNSt6vectorIbSaIbEE9push_backEb, .Lfunc_end46-_ZNSt6vectorIbSaIbEE9push_backEb
	.cfi_endproc
                                        # -- End function
	.text
	.globl	_ZN5Plane12CreateBufferEtb # -- Begin function _ZN5Plane12CreateBufferEtb
	.p2align	4, 0x90
	.type	_ZN5Plane12CreateBufferEtb,@function
_ZN5Plane12CreateBufferEtb:             # @_ZN5Plane12CreateBufferEtb
.Lfunc_begin11:
	.cfi_startproc
	.cfi_personality 155, DW.ref.__gxx_personality_v0
	.cfi_lsda 27, .Lexception11
# %bb.0:
	pushq	%rbp
	.cfi_def_cfa_offset 16
	.cfi_offset %rbp, -16
	movq	%rsp, %rbp
	.cfi_def_cfa_register %rbp
	subq	$320, %rsp              # imm = 0x140
                                        # kill: def $dl killed $dl killed $edx
                                        # kill: def $si killed $si killed $esi
	movq	%fs:40, %rax
	movq	%rax, -8(%rbp)
	movq	%rdi, -208(%rbp)
	movw	%si, -210(%rbp)
	andb	$1, %dl
	movb	%dl, -211(%rbp)
	movq	-208(%rbp), %rax
	movq	%rax, %rcx
	addq	$200, %rcx
	vxorps	%xmm0, %xmm0, %xmm0
	vmovdqa	%xmm0, -96(%rbp)
	movq	$0, -80(%rbp)
	leaq	-96(%rbp), %rdi
	movq	%rdi, -240(%rbp)        # 8-byte Spill
	movq	%rax, -248(%rbp)        # 8-byte Spill
	movq	%rcx, -256(%rbp)        # 8-byte Spill
	callq	_ZNSt6vectorIN2sf6VertexESaIS1_EEC2Ev
.Ltmp149:
	movq	-256(%rbp), %rdi        # 8-byte Reload
	movq	-240(%rbp), %rsi        # 8-byte Reload
	callq	_ZNSt6vectorIS_IN2sf6VertexESaIS1_EESaIS3_EE9push_backEOS3_
.Ltmp150:
	jmp	.LBB47_1
.LBB47_1:
	leaq	-96(%rbp), %rdi
	callq	_ZNSt6vectorIN2sf6VertexESaIS1_EED2Ev
	movq	-248(%rbp), %rax        # 8-byte Reload
	addq	$200, %rax
	movq	%rax, %rdi
	callq	_ZNSt6vectorIS_IN2sf6VertexESaIS1_EESaIS3_EE4backEv
	movl	$200, %esi
	movq	%rax, %rdi
	callq	_ZNSt6vectorIN2sf6VertexESaIS1_EE7reserveEm
	movq	-248(%rbp), %rax        # 8-byte Reload
	addq	$224, %rax
	leaq	-128(%rbp), %rcx
	movl	$3, %esi
	movl	$1, %edx
	movq	%rcx, %rdi
	movq	%rax, -264(%rbp)        # 8-byte Spill
	movq	%rcx, -272(%rbp)        # 8-byte Spill
	callq	_ZN2sf12VertexBufferC1ENS_13PrimitiveTypeENS0_5UsageE@PLT
.Ltmp152:
	movq	-264(%rbp), %rdi        # 8-byte Reload
	movq	-272(%rbp), %rsi        # 8-byte Reload
	callq	_ZNSt6vectorIN2sf12VertexBufferESaIS1_EE9push_backEOS1_
.Ltmp153:
	jmp	.LBB47_2
.LBB47_2:
	leaq	-128(%rbp), %rdi
	callq	_ZN2sf12VertexBufferD1Ev@PLT
	movq	-248(%rbp), %rax        # 8-byte Reload
	addq	$248, %rax
	leaq	-72(%rbp), %rcx
	movq	%rcx, %rdi
	movq	%rax, -280(%rbp)        # 8-byte Spill
	movq	%rcx, -288(%rbp)        # 8-byte Spill
	callq	_ZN2sf9TransformC1Ev@PLT
	movq	-280(%rbp), %rdi        # 8-byte Reload
	movq	-288(%rbp), %rsi        # 8-byte Reload
	callq	_ZNSt6vectorIN2sf9TransformESaIS1_EE9push_backEOS1_
	movq	-248(%rbp), %rax        # 8-byte Reload
	addq	$272, %rax              # imm = 0x110
	leaq	-160(%rbp), %rcx
	movq	%rcx, %rdi
	movq	%rax, -296(%rbp)        # 8-byte Spill
	movq	%rcx, -304(%rbp)        # 8-byte Spill
	callq	_ZN2sf5ImageC1Ev@PLT
.Ltmp155:
	movq	-296(%rbp), %rdi        # 8-byte Reload
	movq	-304(%rbp), %rsi        # 8-byte Reload
	callq	_ZNSt6vectorIN2sf5ImageESaIS1_EE9push_backEOS1_
.Ltmp156:
	jmp	.LBB47_3
.LBB47_3:
	leaq	-160(%rbp), %rdi
	callq	_ZN2sf5ImageD1Ev@PLT
	movq	-248(%rbp), %rax        # 8-byte Reload
	addq	$296, %rax              # imm = 0x128
	leaq	-200(%rbp), %rcx
	movq	%rcx, %rdi
	movq	%rax, -312(%rbp)        # 8-byte Spill
	movq	%rcx, -320(%rbp)        # 8-byte Spill
	callq	_ZN2sf7TextureC1Ev@PLT
.Ltmp158:
	movq	-312(%rbp), %rdi        # 8-byte Reload
	movq	-320(%rbp), %rsi        # 8-byte Reload
	callq	_ZNSt6vectorIN2sf7TextureESaIS1_EE9push_backEOS1_
.Ltmp159:
	jmp	.LBB47_4
.LBB47_4:
	leaq	-200(%rbp), %rdi
	callq	_ZN2sf7TextureD1Ev@PLT
	movq	-248(%rbp), %rax        # 8-byte Reload
	addq	$320, %rax              # imm = 0x140
	xorl	%esi, %esi
	movq	%rax, %rdi
	callq	_ZNSt6vectorIbSaIbEE9push_backEb
	movzwl	-210(%rbp), %esi
	movq	-248(%rbp), %rdi        # 8-byte Reload
	callq	_ZN5Plane12UpdateBufferEt
	movq	%fs:40, %rax
	movq	-8(%rbp), %rcx
	cmpq	%rcx, %rax
	jne	.LBB47_11
# %bb.5:
	addq	$320, %rsp              # imm = 0x140
	popq	%rbp
	.cfi_def_cfa %rsp, 8
	retq
.LBB47_6:
	.cfi_def_cfa %rbp, 16
.Ltmp151:
                                        # kill: def $edx killed $edx killed $rdx
	movq	%rax, -224(%rbp)
	movl	%edx, -228(%rbp)
	leaq	-96(%rbp), %rdi
	callq	_ZNSt6vectorIN2sf6VertexESaIS1_EED2Ev
	jmp	.LBB47_10
.LBB47_7:
.Ltmp154:
                                        # kill: def $edx killed $edx killed $rdx
	movq	%rax, -224(%rbp)
	movl	%edx, -228(%rbp)
	leaq	-128(%rbp), %rdi
	callq	_ZN2sf12VertexBufferD1Ev@PLT
	jmp	.LBB47_10
.LBB47_8:
.Ltmp157:
                                        # kill: def $edx killed $edx killed $rdx
	movq	%rax, -224(%rbp)
	movl	%edx, -228(%rbp)
	leaq	-160(%rbp), %rdi
	callq	_ZN2sf5ImageD1Ev@PLT
	jmp	.LBB47_10
.LBB47_9:
.Ltmp160:
                                        # kill: def $edx killed $edx killed $rdx
	movq	%rax, -224(%rbp)
	movl	%edx, -228(%rbp)
	leaq	-200(%rbp), %rdi
	callq	_ZN2sf7TextureD1Ev@PLT
.LBB47_10:
	movq	-224(%rbp), %rdi
	callq	_Unwind_Resume@PLT
.LBB47_11:
	callq	__stack_chk_fail@PLT
.Lfunc_end47:
	.size	_ZN5Plane12CreateBufferEtb, .Lfunc_end47-_ZN5Plane12CreateBufferEtb
	.cfi_endproc
	.section	.gcc_except_table,"a",@progbits
	.p2align	2
GCC_except_table47:
.Lexception11:
	.byte	255                     # @LPStart Encoding = omit
	.byte	255                     # @TType Encoding = omit
	.byte	1                       # Call site Encoding = uleb128
	.uleb128 .Lcst_end11-.Lcst_begin11
.Lcst_begin11:
	.uleb128 .Ltmp149-.Lfunc_begin11 # >> Call Site 1 <<
	.uleb128 .Ltmp150-.Ltmp149      #   Call between .Ltmp149 and .Ltmp150
	.uleb128 .Ltmp151-.Lfunc_begin11 #     jumps to .Ltmp151
	.byte	0                       #   On action: cleanup
	.uleb128 .Ltmp150-.Lfunc_begin11 # >> Call Site 2 <<
	.uleb128 .Ltmp152-.Ltmp150      #   Call between .Ltmp150 and .Ltmp152
	.byte	0                       #     has no landing pad
	.byte	0                       #   On action: cleanup
	.uleb128 .Ltmp152-.Lfunc_begin11 # >> Call Site 3 <<
	.uleb128 .Ltmp153-.Ltmp152      #   Call between .Ltmp152 and .Ltmp153
	.uleb128 .Ltmp154-.Lfunc_begin11 #     jumps to .Ltmp154
	.byte	0                       #   On action: cleanup
	.uleb128 .Ltmp153-.Lfunc_begin11 # >> Call Site 4 <<
	.uleb128 .Ltmp155-.Ltmp153      #   Call between .Ltmp153 and .Ltmp155
	.byte	0                       #     has no landing pad
	.byte	0                       #   On action: cleanup
	.uleb128 .Ltmp155-.Lfunc_begin11 # >> Call Site 5 <<
	.uleb128 .Ltmp156-.Ltmp155      #   Call between .Ltmp155 and .Ltmp156
	.uleb128 .Ltmp157-.Lfunc_begin11 #     jumps to .Ltmp157
	.byte	0                       #   On action: cleanup
	.uleb128 .Ltmp156-.Lfunc_begin11 # >> Call Site 6 <<
	.uleb128 .Ltmp158-.Ltmp156      #   Call between .Ltmp156 and .Ltmp158
	.byte	0                       #     has no landing pad
	.byte	0                       #   On action: cleanup
	.uleb128 .Ltmp158-.Lfunc_begin11 # >> Call Site 7 <<
	.uleb128 .Ltmp159-.Ltmp158      #   Call between .Ltmp158 and .Ltmp159
	.uleb128 .Ltmp160-.Lfunc_begin11 #     jumps to .Ltmp160
	.byte	0                       #   On action: cleanup
	.uleb128 .Ltmp159-.Lfunc_begin11 # >> Call Site 8 <<
	.uleb128 .Lfunc_end47-.Ltmp159  #   Call between .Ltmp159 and .Lfunc_end47
	.byte	0                       #     has no landing pad
	.byte	0                       #   On action: cleanup
.Lcst_end11:
	.p2align	2
                                        # -- End function
	.text
	.globl	_ZN5Plane14GetCollectionsEv # -- Begin function _ZN5Plane14GetCollectionsEv
	.p2align	4, 0x90
	.type	_ZN5Plane14GetCollectionsEv,@function
_ZN5Plane14GetCollectionsEv:            # @_ZN5Plane14GetCollectionsEv
	.cfi_startproc
# %bb.0:
	pushq	%rbp
	.cfi_def_cfa_offset 16
	.cfi_offset %rbp, -16
	movq	%rsp, %rbp
	.cfi_def_cfa_register %rbp
	movq	%rdi, -8(%rbp)
	movq	-8(%rbp), %rax
	addq	$1072, %rax             # imm = 0x430
	popq	%rbp
	.cfi_def_cfa %rsp, 8
	retq
.Lfunc_end48:
	.size	_ZN5Plane14GetCollectionsEv, .Lfunc_end48-_ZN5Plane14GetCollectionsEv
	.cfi_endproc
                                        # -- End function
	.globl	_ZN5Plane16DeleteCollectionEmb # -- Begin function _ZN5Plane16DeleteCollectionEmb
	.p2align	4, 0x90
	.type	_ZN5Plane16DeleteCollectionEmb,@function
_ZN5Plane16DeleteCollectionEmb:         # @_ZN5Plane16DeleteCollectionEmb
	.cfi_startproc
# %bb.0:
	pushq	%rbp
	.cfi_def_cfa_offset 16
	.cfi_offset %rbp, -16
	movq	%rsp, %rbp
	.cfi_def_cfa_register %rbp
	subq	$432, %rsp              # imm = 0x1B0
                                        # kill: def $dl killed $dl killed $edx
	movq	%fs:40, %rax
	movq	%rax, -8(%rbp)
	movq	%rdi, -288(%rbp)
	movq	%rsi, -296(%rbp)
	andb	$1, %dl
	movb	%dl, -297(%rbp)
	movq	-288(%rbp), %rax
	movq	%rax, %rcx
	addq	$200, %rcx
	movq	%rax, %rsi
	addq	$200, %rsi
	movq	%rsi, %rdi
	movq	%rax, -360(%rbp)        # 8-byte Spill
	movq	%rcx, -368(%rbp)        # 8-byte Spill
	callq	_ZNSt6vectorIS_IN2sf6VertexESaIS1_EESaIS3_EE5beginEv
	movq	%rax, -160(%rbp)
	movq	-296(%rbp), %rsi
	leaq	-160(%rbp), %rdi
	callq	_ZNK9__gnu_cxx17__normal_iteratorIPSt6vectorIN2sf6VertexESaIS3_EES1_IS5_SaIS5_EEEplEl
	movq	%rax, -152(%rbp)
	leaq	-144(%rbp), %rdi
	leaq	-152(%rbp), %rsi
	callq	_ZN9__gnu_cxx17__normal_iteratorIPKSt6vectorIN2sf6VertexESaIS3_EES1_IS5_SaIS5_EEEC2IPS5_EERKNS0_IT_NS_11__enable_ifIXsr3std10__are_sameISD_SC_EE7__valueES9_E6__typeEEE
	movq	-144(%rbp), %rsi
	movq	-368(%rbp), %rdi        # 8-byte Reload
	callq	_ZNSt6vectorIS_IN2sf6VertexESaIS1_EESaIS3_EE5eraseEN9__gnu_cxx17__normal_iteratorIPKS3_S5_EE
	movq	%rax, -312(%rbp)
	movq	-360(%rbp), %rax        # 8-byte Reload
	addq	$224, %rax
	movq	-360(%rbp), %rcx        # 8-byte Reload
	addq	$224, %rcx
	movq	%rcx, %rdi
	movq	%rax, -376(%rbp)        # 8-byte Spill
	callq	_ZNSt6vectorIN2sf12VertexBufferESaIS1_EE5beginEv
	movq	%rax, -184(%rbp)
	movq	-296(%rbp), %rsi
	leaq	-184(%rbp), %rdi
	callq	_ZNK9__gnu_cxx17__normal_iteratorIPN2sf12VertexBufferESt6vectorIS2_SaIS2_EEEplEl
	movq	%rax, -176(%rbp)
	leaq	-168(%rbp), %rdi
	leaq	-176(%rbp), %rsi
	callq	_ZN9__gnu_cxx17__normal_iteratorIPKN2sf12VertexBufferESt6vectorIS2_SaIS2_EEEC2IPS2_EERKNS0_IT_NS_11__enable_ifIXsr3std10__are_sameISB_SA_EE7__valueES7_E6__typeEEE
	movq	-168(%rbp), %rsi
	movq	-376(%rbp), %rdi        # 8-byte Reload
	callq	_ZNSt6vectorIN2sf12VertexBufferESaIS1_EE5eraseEN9__gnu_cxx17__normal_iteratorIPKS1_S3_EE
	movq	%rax, -320(%rbp)
	movq	-360(%rbp), %rax        # 8-byte Reload
	addq	$248, %rax
	movq	-360(%rbp), %rcx        # 8-byte Reload
	addq	$248, %rcx
	movq	%rcx, %rdi
	movq	%rax, -384(%rbp)        # 8-byte Spill
	callq	_ZNSt6vectorIN2sf9TransformESaIS1_EE5beginEv
	movq	%rax, -208(%rbp)
	movq	-296(%rbp), %rsi
	leaq	-208(%rbp), %rdi
	callq	_ZNK9__gnu_cxx17__normal_iteratorIPN2sf9TransformESt6vectorIS2_SaIS2_EEEplEl
	movq	%rax, -200(%rbp)
	leaq	-192(%rbp), %rdi
	leaq	-200(%rbp), %rsi
	callq	_ZN9__gnu_cxx17__normal_iteratorIPKN2sf9TransformESt6vectorIS2_SaIS2_EEEC2IPS2_EERKNS0_IT_NS_11__enable_ifIXsr3std10__are_sameISB_SA_EE7__valueES7_E6__typeEEE
	movq	-192(%rbp), %rsi
	movq	-384(%rbp), %rdi        # 8-byte Reload
	callq	_ZNSt6vectorIN2sf9TransformESaIS1_EE5eraseEN9__gnu_cxx17__normal_iteratorIPKS1_S3_EE
	movq	%rax, -328(%rbp)
	movq	-360(%rbp), %rax        # 8-byte Reload
	addq	$272, %rax              # imm = 0x110
	movq	-360(%rbp), %rcx        # 8-byte Reload
	addq	$272, %rcx              # imm = 0x110
	movq	%rcx, %rdi
	movq	%rax, -392(%rbp)        # 8-byte Spill
	callq	_ZNSt6vectorIN2sf5ImageESaIS1_EE5beginEv
	movq	%rax, -232(%rbp)
	movq	-296(%rbp), %rsi
	leaq	-232(%rbp), %rdi
	callq	_ZNK9__gnu_cxx17__normal_iteratorIPN2sf5ImageESt6vectorIS2_SaIS2_EEEplEl
	movq	%rax, -224(%rbp)
	leaq	-216(%rbp), %rdi
	leaq	-224(%rbp), %rsi
	callq	_ZN9__gnu_cxx17__normal_iteratorIPKN2sf5ImageESt6vectorIS2_SaIS2_EEEC2IPS2_EERKNS0_IT_NS_11__enable_ifIXsr3std10__are_sameISB_SA_EE7__valueES7_E6__typeEEE
	movq	-216(%rbp), %rsi
	movq	-392(%rbp), %rdi        # 8-byte Reload
	callq	_ZNSt6vectorIN2sf5ImageESaIS1_EE5eraseEN9__gnu_cxx17__normal_iteratorIPKS1_S3_EE
	movq	%rax, -336(%rbp)
	movq	-360(%rbp), %rax        # 8-byte Reload
	addq	$296, %rax              # imm = 0x128
	movq	-360(%rbp), %rcx        # 8-byte Reload
	addq	$296, %rcx              # imm = 0x128
	movq	%rcx, %rdi
	movq	%rax, -400(%rbp)        # 8-byte Spill
	callq	_ZNSt6vectorIN2sf7TextureESaIS1_EE5beginEv
	movq	%rax, -256(%rbp)
	movq	-296(%rbp), %rsi
	leaq	-256(%rbp), %rdi
	callq	_ZNK9__gnu_cxx17__normal_iteratorIPN2sf7TextureESt6vectorIS2_SaIS2_EEEplEl
	movq	%rax, -248(%rbp)
	leaq	-240(%rbp), %rdi
	leaq	-248(%rbp), %rsi
	callq	_ZN9__gnu_cxx17__normal_iteratorIPKN2sf7TextureESt6vectorIS2_SaIS2_EEEC2IPS2_EERKNS0_IT_NS_11__enable_ifIXsr3std10__are_sameISB_SA_EE7__valueES7_E6__typeEEE
	movq	-240(%rbp), %rsi
	movq	-400(%rbp), %rdi        # 8-byte Reload
	callq	_ZNSt6vectorIN2sf7TextureESaIS1_EE5eraseEN9__gnu_cxx17__normal_iteratorIPKS1_S3_EE
	movq	%rax, -344(%rbp)
	movq	-360(%rbp), %rax        # 8-byte Reload
	addq	$320, %rax              # imm = 0x140
	movq	-360(%rbp), %rcx        # 8-byte Reload
	addq	$320, %rcx              # imm = 0x140
	movq	%rcx, %rdi
	movq	%rax, -408(%rbp)        # 8-byte Spill
	callq	_ZNSt6vectorIbSaIbEE5beginEv
	movq	%rax, -56(%rbp)
	movl	%edx, -48(%rbp)
	movq	-296(%rbp), %rsi
	leaq	-56(%rbp), %rdi
	callq	_ZStplRKSt13_Bit_iteratorl
	movq	%rax, -40(%rbp)
	movl	%edx, -32(%rbp)
	leaq	-24(%rbp), %rdi
	leaq	-40(%rbp), %rsi
	callq	_ZNSt19_Bit_const_iteratorC2ERKSt13_Bit_iterator
	movq	-24(%rbp), %rsi
	movl	-16(%rbp), %edx
	movq	-408(%rbp), %rdi        # 8-byte Reload
	callq	_ZNSt6vectorIbSaIbEE5eraseESt19_Bit_const_iterator
	movq	%rax, -72(%rbp)
	movl	%edx, -64(%rbp)
	movq	-360(%rbp), %rax        # 8-byte Reload
	addq	$1032, %rax             # imm = 0x408
	movq	-360(%rbp), %rcx        # 8-byte Reload
	addq	$1032, %rcx             # imm = 0x408
	movq	%rcx, %rdi
	movq	%rax, -416(%rbp)        # 8-byte Spill
	callq	_ZNSt6vectorIbSaIbEE5beginEv
	movq	%rax, -120(%rbp)
	movl	%edx, -112(%rbp)
	movq	-296(%rbp), %rsi
	leaq	-120(%rbp), %rdi
	callq	_ZStplRKSt13_Bit_iteratorl
	movq	%rax, -104(%rbp)
	movl	%edx, -96(%rbp)
	leaq	-88(%rbp), %rdi
	leaq	-104(%rbp), %rsi
	callq	_ZNSt19_Bit_const_iteratorC2ERKSt13_Bit_iterator
	movq	-88(%rbp), %rsi
	movl	-80(%rbp), %edx
	movq	-416(%rbp), %rdi        # 8-byte Reload
	callq	_ZNSt6vectorIbSaIbEE5eraseESt19_Bit_const_iterator
	movq	%rax, -136(%rbp)
	movl	%edx, -128(%rbp)
	testb	$1, -297(%rbp)
	je	.LBB49_4
# %bb.1:
	movq	-360(%rbp), %rax        # 8-byte Reload
	addq	$1072, %rax             # imm = 0x430
	movq	-296(%rbp), %rsi
	movq	%rax, %rdi
	callq	_ZNSt6vectorIP10CollectionSaIS1_EEixEm
	movq	(%rax), %rax
	cmpq	$0, %rax
	movq	%rax, -424(%rbp)        # 8-byte Spill
	je	.LBB49_3
# %bb.2:
	movq	-424(%rbp), %rax        # 8-byte Reload
	movq	(%rax), %rcx
	movq	%rax, %rdi
	callq	*8(%rcx)
.LBB49_3:
	jmp	.LBB49_4
.LBB49_4:
	movq	-360(%rbp), %rax        # 8-byte Reload
	addq	$1072, %rax             # imm = 0x430
	movq	%rax, %rdi
	movq	%rax, -432(%rbp)        # 8-byte Spill
	callq	_ZNSt6vectorIP10CollectionSaIS1_EE5beginEv
	movq	%rax, -280(%rbp)
	movq	-296(%rbp), %rsi
	leaq	-280(%rbp), %rdi
	callq	_ZNK9__gnu_cxx17__normal_iteratorIPP10CollectionSt6vectorIS2_SaIS2_EEEplEl
	movq	%rax, -272(%rbp)
	leaq	-264(%rbp), %rdi
	leaq	-272(%rbp), %rsi
	callq	_ZN9__gnu_cxx17__normal_iteratorIPKP10CollectionSt6vectorIS2_SaIS2_EEEC2IPS2_EERKNS0_IT_NS_11__enable_ifIXsr3std10__are_sameISB_SA_EE7__valueES7_E6__typeEEE
	movq	-264(%rbp), %rsi
	movq	-432(%rbp), %rdi        # 8-byte Reload
	callq	_ZNSt6vectorIP10CollectionSaIS1_EE5eraseEN9__gnu_cxx17__normal_iteratorIPKS1_S3_EE
	movq	%rax, -352(%rbp)
	movq	%fs:40, %rax
	movq	-8(%rbp), %rcx
	cmpq	%rcx, %rax
	jne	.LBB49_6
# %bb.5:
	addq	$432, %rsp              # imm = 0x1B0
	popq	%rbp
	.cfi_def_cfa %rsp, 8
	retq
.LBB49_6:
	.cfi_def_cfa %rbp, 16
	callq	__stack_chk_fail@PLT
.Lfunc_end49:
	.size	_ZN5Plane16DeleteCollectionEmb, .Lfunc_end49-_ZN5Plane16DeleteCollectionEmb
	.cfi_endproc
                                        # -- End function
	.section	.text._ZNSt6vectorIS_IN2sf6VertexESaIS1_EESaIS3_EE5eraseEN9__gnu_cxx17__normal_iteratorIPKS3_S5_EE,"axG",@progbits,_ZNSt6vectorIS_IN2sf6VertexESaIS1_EESaIS3_EE5eraseEN9__gnu_cxx17__normal_iteratorIPKS3_S5_EE,comdat
	.weak	_ZNSt6vectorIS_IN2sf6VertexESaIS1_EESaIS3_EE5eraseEN9__gnu_cxx17__normal_iteratorIPKS3_S5_EE # -- Begin function _ZNSt6vectorIS_IN2sf6VertexESaIS1_EESaIS3_EE5eraseEN9__gnu_cxx17__normal_iteratorIPKS3_S5_EE
	.p2align	4, 0x90
	.type	_ZNSt6vectorIS_IN2sf6VertexESaIS1_EESaIS3_EE5eraseEN9__gnu_cxx17__normal_iteratorIPKS3_S5_EE,@function
_ZNSt6vectorIS_IN2sf6VertexESaIS1_EESaIS3_EE5eraseEN9__gnu_cxx17__normal_iteratorIPKS3_S5_EE: # @_ZNSt6vectorIS_IN2sf6VertexESaIS1_EESaIS3_EE5eraseEN9__gnu_cxx17__normal_iteratorIPKS3_S5_EE
	.cfi_startproc
# %bb.0:
	pushq	%rbp
	.cfi_def_cfa_offset 16
	.cfi_offset %rbp, -16
	movq	%rsp, %rbp
	.cfi_def_cfa_register %rbp
	subq	$80, %rsp
	movq	%fs:40, %rax
	movq	%rax, -8(%rbp)
	movq	%rsi, -16(%rbp)
	movq	%rdi, -48(%rbp)
	movq	-48(%rbp), %rax
	movq	%rax, %rdi
	movq	%rax, -64(%rbp)         # 8-byte Spill
	callq	_ZNSt6vectorIS_IN2sf6VertexESaIS1_EESaIS3_EE5beginEv
	movq	%rax, -24(%rbp)
	movq	-64(%rbp), %rdi         # 8-byte Reload
	callq	_ZNKSt6vectorIS_IN2sf6VertexESaIS1_EESaIS3_EE6cbeginEv
	movq	%rax, -32(%rbp)
	leaq	-16(%rbp), %rdi
	leaq	-32(%rbp), %rsi
	callq	_ZN9__gnu_cxxmiIPKSt6vectorIN2sf6VertexESaIS3_EES1_IS5_SaIS5_EEEENS_17__normal_iteratorIT_T0_E15difference_typeERKSD_SG_
	leaq	-24(%rbp), %rdi
	movq	%rax, %rsi
	callq	_ZNK9__gnu_cxx17__normal_iteratorIPSt6vectorIN2sf6VertexESaIS3_EES1_IS5_SaIS5_EEEplEl
	movq	%rax, -56(%rbp)
	movq	-56(%rbp), %rsi
	movq	-64(%rbp), %rdi         # 8-byte Reload
	callq	_ZNSt6vectorIS_IN2sf6VertexESaIS1_EESaIS3_EE8_M_eraseEN9__gnu_cxx17__normal_iteratorIPS3_S5_EE
	movq	%rax, -40(%rbp)
	movq	-40(%rbp), %rax
	movq	%fs:40, %rcx
	movq	-8(%rbp), %rdx
	cmpq	%rdx, %rcx
	movq	%rax, -72(%rbp)         # 8-byte Spill
	jne	.LBB50_2
# %bb.1:
	movq	-72(%rbp), %rax         # 8-byte Reload
	addq	$80, %rsp
	popq	%rbp
	.cfi_def_cfa %rsp, 8
	retq
.LBB50_2:
	.cfi_def_cfa %rbp, 16
	callq	__stack_chk_fail@PLT
.Lfunc_end50:
	.size	_ZNSt6vectorIS_IN2sf6VertexESaIS1_EESaIS3_EE5eraseEN9__gnu_cxx17__normal_iteratorIPKS3_S5_EE, .Lfunc_end50-_ZNSt6vectorIS_IN2sf6VertexESaIS1_EESaIS3_EE5eraseEN9__gnu_cxx17__normal_iteratorIPKS3_S5_EE
	.cfi_endproc
                                        # -- End function
	.section	.text._ZNSt6vectorIS_IN2sf6VertexESaIS1_EESaIS3_EE5beginEv,"axG",@progbits,_ZNSt6vectorIS_IN2sf6VertexESaIS1_EESaIS3_EE5beginEv,comdat
	.weak	_ZNSt6vectorIS_IN2sf6VertexESaIS1_EESaIS3_EE5beginEv # -- Begin function _ZNSt6vectorIS_IN2sf6VertexESaIS1_EESaIS3_EE5beginEv
	.p2align	4, 0x90
	.type	_ZNSt6vectorIS_IN2sf6VertexESaIS1_EESaIS3_EE5beginEv,@function
_ZNSt6vectorIS_IN2sf6VertexESaIS1_EESaIS3_EE5beginEv: # @_ZNSt6vectorIS_IN2sf6VertexESaIS1_EESaIS3_EE5beginEv
	.cfi_startproc
# %bb.0:
	pushq	%rbp
	.cfi_def_cfa_offset 16
	.cfi_offset %rbp, -16
	movq	%rsp, %rbp
	.cfi_def_cfa_register %rbp
	subq	$32, %rsp
	movq	%fs:40, %rax
	movq	%rax, -8(%rbp)
	movq	%rdi, -24(%rbp)
	movq	-24(%rbp), %rsi
	leaq	-16(%rbp), %rdi
	callq	_ZN9__gnu_cxx17__normal_iteratorIPSt6vectorIN2sf6VertexESaIS3_EES1_IS5_SaIS5_EEEC2ERKS6_
	movq	-16(%rbp), %rax
	movq	%fs:40, %rcx
	movq	-8(%rbp), %rdx
	cmpq	%rdx, %rcx
	movq	%rax, -32(%rbp)         # 8-byte Spill
	jne	.LBB51_2
# %bb.1:
	movq	-32(%rbp), %rax         # 8-byte Reload
	addq	$32, %rsp
	popq	%rbp
	.cfi_def_cfa %rsp, 8
	retq
.LBB51_2:
	.cfi_def_cfa %rbp, 16
	callq	__stack_chk_fail@PLT
.Lfunc_end51:
	.size	_ZNSt6vectorIS_IN2sf6VertexESaIS1_EESaIS3_EE5beginEv, .Lfunc_end51-_ZNSt6vectorIS_IN2sf6VertexESaIS1_EESaIS3_EE5beginEv
	.cfi_endproc
                                        # -- End function
	.section	.text._ZNK9__gnu_cxx17__normal_iteratorIPSt6vectorIN2sf6VertexESaIS3_EES1_IS5_SaIS5_EEEplEl,"axG",@progbits,_ZNK9__gnu_cxx17__normal_iteratorIPSt6vectorIN2sf6VertexESaIS3_EES1_IS5_SaIS5_EEEplEl,comdat
	.weak	_ZNK9__gnu_cxx17__normal_iteratorIPSt6vectorIN2sf6VertexESaIS3_EES1_IS5_SaIS5_EEEplEl # -- Begin function _ZNK9__gnu_cxx17__normal_iteratorIPSt6vectorIN2sf6VertexESaIS3_EES1_IS5_SaIS5_EEEplEl
	.p2align	4, 0x90
	.type	_ZNK9__gnu_cxx17__normal_iteratorIPSt6vectorIN2sf6VertexESaIS3_EES1_IS5_SaIS5_EEEplEl,@function
_ZNK9__gnu_cxx17__normal_iteratorIPSt6vectorIN2sf6VertexESaIS3_EES1_IS5_SaIS5_EEEplEl: # @_ZNK9__gnu_cxx17__normal_iteratorIPSt6vectorIN2sf6VertexESaIS3_EES1_IS5_SaIS5_EEEplEl
	.cfi_startproc
# %bb.0:
	pushq	%rbp
	.cfi_def_cfa_offset 16
	.cfi_offset %rbp, -16
	movq	%rsp, %rbp
	.cfi_def_cfa_register %rbp
	subq	$48, %rsp
	movq	%fs:40, %rax
	movq	%rax, -8(%rbp)
	movq	%rdi, -32(%rbp)
	movq	%rsi, -40(%rbp)
	movq	-32(%rbp), %rax
	movq	(%rax), %rax
	movq	-40(%rbp), %rcx
	leaq	(%rcx,%rcx,2), %rcx
	leaq	(%rax,%rcx,8), %rax
	movq	%rax, -24(%rbp)
	leaq	-16(%rbp), %rdi
	leaq	-24(%rbp), %rsi
	callq	_ZN9__gnu_cxx17__normal_iteratorIPSt6vectorIN2sf6VertexESaIS3_EES1_IS5_SaIS5_EEEC2ERKS6_
	movq	-16(%rbp), %rax
	movq	%fs:40, %rcx
	movq	-8(%rbp), %rdx
	cmpq	%rdx, %rcx
	movq	%rax, -48(%rbp)         # 8-byte Spill
	jne	.LBB52_2
# %bb.1:
	movq	-48(%rbp), %rax         # 8-byte Reload
	addq	$48, %rsp
	popq	%rbp
	.cfi_def_cfa %rsp, 8
	retq
.LBB52_2:
	.cfi_def_cfa %rbp, 16
	callq	__stack_chk_fail@PLT
.Lfunc_end52:
	.size	_ZNK9__gnu_cxx17__normal_iteratorIPSt6vectorIN2sf6VertexESaIS3_EES1_IS5_SaIS5_EEEplEl, .Lfunc_end52-_ZNK9__gnu_cxx17__normal_iteratorIPSt6vectorIN2sf6VertexESaIS3_EES1_IS5_SaIS5_EEEplEl
	.cfi_endproc
                                        # -- End function
	.section	.text._ZN9__gnu_cxx17__normal_iteratorIPKSt6vectorIN2sf6VertexESaIS3_EES1_IS5_SaIS5_EEEC2IPS5_EERKNS0_IT_NS_11__enable_ifIXsr3std10__are_sameISD_SC_EE7__valueES9_E6__typeEEE,"axG",@progbits,_ZN9__gnu_cxx17__normal_iteratorIPKSt6vectorIN2sf6VertexESaIS3_EES1_IS5_SaIS5_EEEC2IPS5_EERKNS0_IT_NS_11__enable_ifIXsr3std10__are_sameISD_SC_EE7__valueES9_E6__typeEEE,comdat
	.weak	_ZN9__gnu_cxx17__normal_iteratorIPKSt6vectorIN2sf6VertexESaIS3_EES1_IS5_SaIS5_EEEC2IPS5_EERKNS0_IT_NS_11__enable_ifIXsr3std10__are_sameISD_SC_EE7__valueES9_E6__typeEEE # -- Begin function _ZN9__gnu_cxx17__normal_iteratorIPKSt6vectorIN2sf6VertexESaIS3_EES1_IS5_SaIS5_EEEC2IPS5_EERKNS0_IT_NS_11__enable_ifIXsr3std10__are_sameISD_SC_EE7__valueES9_E6__typeEEE
	.p2align	4, 0x90
	.type	_ZN9__gnu_cxx17__normal_iteratorIPKSt6vectorIN2sf6VertexESaIS3_EES1_IS5_SaIS5_EEEC2IPS5_EERKNS0_IT_NS_11__enable_ifIXsr3std10__are_sameISD_SC_EE7__valueES9_E6__typeEEE,@function
_ZN9__gnu_cxx17__normal_iteratorIPKSt6vectorIN2sf6VertexESaIS3_EES1_IS5_SaIS5_EEEC2IPS5_EERKNS0_IT_NS_11__enable_ifIXsr3std10__are_sameISD_SC_EE7__valueES9_E6__typeEEE: # @_ZN9__gnu_cxx17__normal_iteratorIPKSt6vectorIN2sf6VertexESaIS3_EES1_IS5_SaIS5_EEEC2IPS5_EERKNS0_IT_NS_11__enable_ifIXsr3std10__are_sameISD_SC_EE7__valueES9_E6__typeEEE
	.cfi_startproc
# %bb.0:
	pushq	%rbp
	.cfi_def_cfa_offset 16
	.cfi_offset %rbp, -16
	movq	%rsp, %rbp
	.cfi_def_cfa_register %rbp
	subq	$32, %rsp
	movq	%rdi, -8(%rbp)
	movq	%rsi, -16(%rbp)
	movq	-8(%rbp), %rax
	movq	-16(%rbp), %rdi
	movq	%rax, -24(%rbp)         # 8-byte Spill
	callq	_ZNK9__gnu_cxx17__normal_iteratorIPSt6vectorIN2sf6VertexESaIS3_EES1_IS5_SaIS5_EEE4baseEv
	movq	(%rax), %rax
	movq	-24(%rbp), %rcx         # 8-byte Reload
	movq	%rax, (%rcx)
	addq	$32, %rsp
	popq	%rbp
	.cfi_def_cfa %rsp, 8
	retq
.Lfunc_end53:
	.size	_ZN9__gnu_cxx17__normal_iteratorIPKSt6vectorIN2sf6VertexESaIS3_EES1_IS5_SaIS5_EEEC2IPS5_EERKNS0_IT_NS_11__enable_ifIXsr3std10__are_sameISD_SC_EE7__valueES9_E6__typeEEE, .Lfunc_end53-_ZN9__gnu_cxx17__normal_iteratorIPKSt6vectorIN2sf6VertexESaIS3_EES1_IS5_SaIS5_EEEC2IPS5_EERKNS0_IT_NS_11__enable_ifIXsr3std10__are_sameISD_SC_EE7__valueES9_E6__typeEEE
	.cfi_endproc
                                        # -- End function
	.section	.text._ZNSt6vectorIN2sf12VertexBufferESaIS1_EE5eraseEN9__gnu_cxx17__normal_iteratorIPKS1_S3_EE,"axG",@progbits,_ZNSt6vectorIN2sf12VertexBufferESaIS1_EE5eraseEN9__gnu_cxx17__normal_iteratorIPKS1_S3_EE,comdat
	.weak	_ZNSt6vectorIN2sf12VertexBufferESaIS1_EE5eraseEN9__gnu_cxx17__normal_iteratorIPKS1_S3_EE # -- Begin function _ZNSt6vectorIN2sf12VertexBufferESaIS1_EE5eraseEN9__gnu_cxx17__normal_iteratorIPKS1_S3_EE
	.p2align	4, 0x90
	.type	_ZNSt6vectorIN2sf12VertexBufferESaIS1_EE5eraseEN9__gnu_cxx17__normal_iteratorIPKS1_S3_EE,@function
_ZNSt6vectorIN2sf12VertexBufferESaIS1_EE5eraseEN9__gnu_cxx17__normal_iteratorIPKS1_S3_EE: # @_ZNSt6vectorIN2sf12VertexBufferESaIS1_EE5eraseEN9__gnu_cxx17__normal_iteratorIPKS1_S3_EE
	.cfi_startproc
# %bb.0:
	pushq	%rbp
	.cfi_def_cfa_offset 16
	.cfi_offset %rbp, -16
	movq	%rsp, %rbp
	.cfi_def_cfa_register %rbp
	subq	$80, %rsp
	movq	%fs:40, %rax
	movq	%rax, -8(%rbp)
	movq	%rsi, -16(%rbp)
	movq	%rdi, -48(%rbp)
	movq	-48(%rbp), %rax
	movq	%rax, %rdi
	movq	%rax, -64(%rbp)         # 8-byte Spill
	callq	_ZNSt6vectorIN2sf12VertexBufferESaIS1_EE5beginEv
	movq	%rax, -24(%rbp)
	movq	-64(%rbp), %rdi         # 8-byte Reload
	callq	_ZNKSt6vectorIN2sf12VertexBufferESaIS1_EE6cbeginEv
	movq	%rax, -32(%rbp)
	leaq	-16(%rbp), %rdi
	leaq	-32(%rbp), %rsi
	callq	_ZN9__gnu_cxxmiIPKN2sf12VertexBufferESt6vectorIS2_SaIS2_EEEENS_17__normal_iteratorIT_T0_E15difference_typeERKSB_SE_
	leaq	-24(%rbp), %rdi
	movq	%rax, %rsi
	callq	_ZNK9__gnu_cxx17__normal_iteratorIPN2sf12VertexBufferESt6vectorIS2_SaIS2_EEEplEl
	movq	%rax, -56(%rbp)
	movq	-56(%rbp), %rsi
	movq	-64(%rbp), %rdi         # 8-byte Reload
	callq	_ZNSt6vectorIN2sf12VertexBufferESaIS1_EE8_M_eraseEN9__gnu_cxx17__normal_iteratorIPS1_S3_EE
	movq	%rax, -40(%rbp)
	movq	-40(%rbp), %rax
	movq	%fs:40, %rcx
	movq	-8(%rbp), %rdx
	cmpq	%rdx, %rcx
	movq	%rax, -72(%rbp)         # 8-byte Spill
	jne	.LBB54_2
# %bb.1:
	movq	-72(%rbp), %rax         # 8-byte Reload
	addq	$80, %rsp
	popq	%rbp
	.cfi_def_cfa %rsp, 8
	retq
.LBB54_2:
	.cfi_def_cfa %rbp, 16
	callq	__stack_chk_fail@PLT
.Lfunc_end54:
	.size	_ZNSt6vectorIN2sf12VertexBufferESaIS1_EE5eraseEN9__gnu_cxx17__normal_iteratorIPKS1_S3_EE, .Lfunc_end54-_ZNSt6vectorIN2sf12VertexBufferESaIS1_EE5eraseEN9__gnu_cxx17__normal_iteratorIPKS1_S3_EE
	.cfi_endproc
                                        # -- End function
	.section	.text._ZNSt6vectorIN2sf12VertexBufferESaIS1_EE5beginEv,"axG",@progbits,_ZNSt6vectorIN2sf12VertexBufferESaIS1_EE5beginEv,comdat
	.weak	_ZNSt6vectorIN2sf12VertexBufferESaIS1_EE5beginEv # -- Begin function _ZNSt6vectorIN2sf12VertexBufferESaIS1_EE5beginEv
	.p2align	4, 0x90
	.type	_ZNSt6vectorIN2sf12VertexBufferESaIS1_EE5beginEv,@function
_ZNSt6vectorIN2sf12VertexBufferESaIS1_EE5beginEv: # @_ZNSt6vectorIN2sf12VertexBufferESaIS1_EE5beginEv
	.cfi_startproc
# %bb.0:
	pushq	%rbp
	.cfi_def_cfa_offset 16
	.cfi_offset %rbp, -16
	movq	%rsp, %rbp
	.cfi_def_cfa_register %rbp
	subq	$32, %rsp
	movq	%fs:40, %rax
	movq	%rax, -8(%rbp)
	movq	%rdi, -24(%rbp)
	movq	-24(%rbp), %rsi
	leaq	-16(%rbp), %rdi
	callq	_ZN9__gnu_cxx17__normal_iteratorIPN2sf12VertexBufferESt6vectorIS2_SaIS2_EEEC2ERKS3_
	movq	-16(%rbp), %rax
	movq	%fs:40, %rcx
	movq	-8(%rbp), %rdx
	cmpq	%rdx, %rcx
	movq	%rax, -32(%rbp)         # 8-byte Spill
	jne	.LBB55_2
# %bb.1:
	movq	-32(%rbp), %rax         # 8-byte Reload
	addq	$32, %rsp
	popq	%rbp
	.cfi_def_cfa %rsp, 8
	retq
.LBB55_2:
	.cfi_def_cfa %rbp, 16
	callq	__stack_chk_fail@PLT
.Lfunc_end55:
	.size	_ZNSt6vectorIN2sf12VertexBufferESaIS1_EE5beginEv, .Lfunc_end55-_ZNSt6vectorIN2sf12VertexBufferESaIS1_EE5beginEv
	.cfi_endproc
                                        # -- End function
	.section	.text._ZNK9__gnu_cxx17__normal_iteratorIPN2sf12VertexBufferESt6vectorIS2_SaIS2_EEEplEl,"axG",@progbits,_ZNK9__gnu_cxx17__normal_iteratorIPN2sf12VertexBufferESt6vectorIS2_SaIS2_EEEplEl,comdat
	.weak	_ZNK9__gnu_cxx17__normal_iteratorIPN2sf12VertexBufferESt6vectorIS2_SaIS2_EEEplEl # -- Begin function _ZNK9__gnu_cxx17__normal_iteratorIPN2sf12VertexBufferESt6vectorIS2_SaIS2_EEEplEl
	.p2align	4, 0x90
	.type	_ZNK9__gnu_cxx17__normal_iteratorIPN2sf12VertexBufferESt6vectorIS2_SaIS2_EEEplEl,@function
_ZNK9__gnu_cxx17__normal_iteratorIPN2sf12VertexBufferESt6vectorIS2_SaIS2_EEEplEl: # @_ZNK9__gnu_cxx17__normal_iteratorIPN2sf12VertexBufferESt6vectorIS2_SaIS2_EEEplEl
	.cfi_startproc
# %bb.0:
	pushq	%rbp
	.cfi_def_cfa_offset 16
	.cfi_offset %rbp, -16
	movq	%rsp, %rbp
	.cfi_def_cfa_register %rbp
	subq	$48, %rsp
	movq	%fs:40, %rax
	movq	%rax, -8(%rbp)
	movq	%rdi, -32(%rbp)
	movq	%rsi, -40(%rbp)
	movq	-32(%rbp), %rax
	movq	(%rax), %rax
	movq	-40(%rbp), %rcx
	shlq	$5, %rcx
	addq	%rcx, %rax
	movq	%rax, -24(%rbp)
	leaq	-16(%rbp), %rdi
	leaq	-24(%rbp), %rsi
	callq	_ZN9__gnu_cxx17__normal_iteratorIPN2sf12VertexBufferESt6vectorIS2_SaIS2_EEEC2ERKS3_
	movq	-16(%rbp), %rax
	movq	%fs:40, %rcx
	movq	-8(%rbp), %rdx
	cmpq	%rdx, %rcx
	movq	%rax, -48(%rbp)         # 8-byte Spill
	jne	.LBB56_2
# %bb.1:
	movq	-48(%rbp), %rax         # 8-byte Reload
	addq	$48, %rsp
	popq	%rbp
	.cfi_def_cfa %rsp, 8
	retq
.LBB56_2:
	.cfi_def_cfa %rbp, 16
	callq	__stack_chk_fail@PLT
.Lfunc_end56:
	.size	_ZNK9__gnu_cxx17__normal_iteratorIPN2sf12VertexBufferESt6vectorIS2_SaIS2_EEEplEl, .Lfunc_end56-_ZNK9__gnu_cxx17__normal_iteratorIPN2sf12VertexBufferESt6vectorIS2_SaIS2_EEEplEl
	.cfi_endproc
                                        # -- End function
	.section	.text._ZN9__gnu_cxx17__normal_iteratorIPKN2sf12VertexBufferESt6vectorIS2_SaIS2_EEEC2IPS2_EERKNS0_IT_NS_11__enable_ifIXsr3std10__are_sameISB_SA_EE7__valueES7_E6__typeEEE,"axG",@progbits,_ZN9__gnu_cxx17__normal_iteratorIPKN2sf12VertexBufferESt6vectorIS2_SaIS2_EEEC2IPS2_EERKNS0_IT_NS_11__enable_ifIXsr3std10__are_sameISB_SA_EE7__valueES7_E6__typeEEE,comdat
	.weak	_ZN9__gnu_cxx17__normal_iteratorIPKN2sf12VertexBufferESt6vectorIS2_SaIS2_EEEC2IPS2_EERKNS0_IT_NS_11__enable_ifIXsr3std10__are_sameISB_SA_EE7__valueES7_E6__typeEEE # -- Begin function _ZN9__gnu_cxx17__normal_iteratorIPKN2sf12VertexBufferESt6vectorIS2_SaIS2_EEEC2IPS2_EERKNS0_IT_NS_11__enable_ifIXsr3std10__are_sameISB_SA_EE7__valueES7_E6__typeEEE
	.p2align	4, 0x90
	.type	_ZN9__gnu_cxx17__normal_iteratorIPKN2sf12VertexBufferESt6vectorIS2_SaIS2_EEEC2IPS2_EERKNS0_IT_NS_11__enable_ifIXsr3std10__are_sameISB_SA_EE7__valueES7_E6__typeEEE,@function
_ZN9__gnu_cxx17__normal_iteratorIPKN2sf12VertexBufferESt6vectorIS2_SaIS2_EEEC2IPS2_EERKNS0_IT_NS_11__enable_ifIXsr3std10__are_sameISB_SA_EE7__valueES7_E6__typeEEE: # @_ZN9__gnu_cxx17__normal_iteratorIPKN2sf12VertexBufferESt6vectorIS2_SaIS2_EEEC2IPS2_EERKNS0_IT_NS_11__enable_ifIXsr3std10__are_sameISB_SA_EE7__valueES7_E6__typeEEE
	.cfi_startproc
# %bb.0:
	pushq	%rbp
	.cfi_def_cfa_offset 16
	.cfi_offset %rbp, -16
	movq	%rsp, %rbp
	.cfi_def_cfa_register %rbp
	subq	$32, %rsp
	movq	%rdi, -8(%rbp)
	movq	%rsi, -16(%rbp)
	movq	-8(%rbp), %rax
	movq	-16(%rbp), %rdi
	movq	%rax, -24(%rbp)         # 8-byte Spill
	callq	_ZNK9__gnu_cxx17__normal_iteratorIPN2sf12VertexBufferESt6vectorIS2_SaIS2_EEE4baseEv
	movq	(%rax), %rax
	movq	-24(%rbp), %rcx         # 8-byte Reload
	movq	%rax, (%rcx)
	addq	$32, %rsp
	popq	%rbp
	.cfi_def_cfa %rsp, 8
	retq
.Lfunc_end57:
	.size	_ZN9__gnu_cxx17__normal_iteratorIPKN2sf12VertexBufferESt6vectorIS2_SaIS2_EEEC2IPS2_EERKNS0_IT_NS_11__enable_ifIXsr3std10__are_sameISB_SA_EE7__valueES7_E6__typeEEE, .Lfunc_end57-_ZN9__gnu_cxx17__normal_iteratorIPKN2sf12VertexBufferESt6vectorIS2_SaIS2_EEEC2IPS2_EERKNS0_IT_NS_11__enable_ifIXsr3std10__are_sameISB_SA_EE7__valueES7_E6__typeEEE
	.cfi_endproc
                                        # -- End function
	.section	.text._ZNSt6vectorIN2sf9TransformESaIS1_EE5eraseEN9__gnu_cxx17__normal_iteratorIPKS1_S3_EE,"axG",@progbits,_ZNSt6vectorIN2sf9TransformESaIS1_EE5eraseEN9__gnu_cxx17__normal_iteratorIPKS1_S3_EE,comdat
	.weak	_ZNSt6vectorIN2sf9TransformESaIS1_EE5eraseEN9__gnu_cxx17__normal_iteratorIPKS1_S3_EE # -- Begin function _ZNSt6vectorIN2sf9TransformESaIS1_EE5eraseEN9__gnu_cxx17__normal_iteratorIPKS1_S3_EE
	.p2align	4, 0x90
	.type	_ZNSt6vectorIN2sf9TransformESaIS1_EE5eraseEN9__gnu_cxx17__normal_iteratorIPKS1_S3_EE,@function
_ZNSt6vectorIN2sf9TransformESaIS1_EE5eraseEN9__gnu_cxx17__normal_iteratorIPKS1_S3_EE: # @_ZNSt6vectorIN2sf9TransformESaIS1_EE5eraseEN9__gnu_cxx17__normal_iteratorIPKS1_S3_EE
	.cfi_startproc
# %bb.0:
	pushq	%rbp
	.cfi_def_cfa_offset 16
	.cfi_offset %rbp, -16
	movq	%rsp, %rbp
	.cfi_def_cfa_register %rbp
	subq	$80, %rsp
	movq	%fs:40, %rax
	movq	%rax, -8(%rbp)
	movq	%rsi, -16(%rbp)
	movq	%rdi, -48(%rbp)
	movq	-48(%rbp), %rax
	movq	%rax, %rdi
	movq	%rax, -64(%rbp)         # 8-byte Spill
	callq	_ZNSt6vectorIN2sf9TransformESaIS1_EE5beginEv
	movq	%rax, -24(%rbp)
	movq	-64(%rbp), %rdi         # 8-byte Reload
	callq	_ZNKSt6vectorIN2sf9TransformESaIS1_EE6cbeginEv
	movq	%rax, -32(%rbp)
	leaq	-16(%rbp), %rdi
	leaq	-32(%rbp), %rsi
	callq	_ZN9__gnu_cxxmiIPKN2sf9TransformESt6vectorIS2_SaIS2_EEEENS_17__normal_iteratorIT_T0_E15difference_typeERKSB_SE_
	leaq	-24(%rbp), %rdi
	movq	%rax, %rsi
	callq	_ZNK9__gnu_cxx17__normal_iteratorIPN2sf9TransformESt6vectorIS2_SaIS2_EEEplEl
	movq	%rax, -56(%rbp)
	movq	-56(%rbp), %rsi
	movq	-64(%rbp), %rdi         # 8-byte Reload
	callq	_ZNSt6vectorIN2sf9TransformESaIS1_EE8_M_eraseEN9__gnu_cxx17__normal_iteratorIPS1_S3_EE
	movq	%rax, -40(%rbp)
	movq	-40(%rbp), %rax
	movq	%fs:40, %rcx
	movq	-8(%rbp), %rdx
	cmpq	%rdx, %rcx
	movq	%rax, -72(%rbp)         # 8-byte Spill
	jne	.LBB58_2
# %bb.1:
	movq	-72(%rbp), %rax         # 8-byte Reload
	addq	$80, %rsp
	popq	%rbp
	.cfi_def_cfa %rsp, 8
	retq
.LBB58_2:
	.cfi_def_cfa %rbp, 16
	callq	__stack_chk_fail@PLT
.Lfunc_end58:
	.size	_ZNSt6vectorIN2sf9TransformESaIS1_EE5eraseEN9__gnu_cxx17__normal_iteratorIPKS1_S3_EE, .Lfunc_end58-_ZNSt6vectorIN2sf9TransformESaIS1_EE5eraseEN9__gnu_cxx17__normal_iteratorIPKS1_S3_EE
	.cfi_endproc
                                        # -- End function
	.section	.text._ZNSt6vectorIN2sf9TransformESaIS1_EE5beginEv,"axG",@progbits,_ZNSt6vectorIN2sf9TransformESaIS1_EE5beginEv,comdat
	.weak	_ZNSt6vectorIN2sf9TransformESaIS1_EE5beginEv # -- Begin function _ZNSt6vectorIN2sf9TransformESaIS1_EE5beginEv
	.p2align	4, 0x90
	.type	_ZNSt6vectorIN2sf9TransformESaIS1_EE5beginEv,@function
_ZNSt6vectorIN2sf9TransformESaIS1_EE5beginEv: # @_ZNSt6vectorIN2sf9TransformESaIS1_EE5beginEv
	.cfi_startproc
# %bb.0:
	pushq	%rbp
	.cfi_def_cfa_offset 16
	.cfi_offset %rbp, -16
	movq	%rsp, %rbp
	.cfi_def_cfa_register %rbp
	subq	$32, %rsp
	movq	%fs:40, %rax
	movq	%rax, -8(%rbp)
	movq	%rdi, -24(%rbp)
	movq	-24(%rbp), %rsi
	leaq	-16(%rbp), %rdi
	callq	_ZN9__gnu_cxx17__normal_iteratorIPN2sf9TransformESt6vectorIS2_SaIS2_EEEC2ERKS3_
	movq	-16(%rbp), %rax
	movq	%fs:40, %rcx
	movq	-8(%rbp), %rdx
	cmpq	%rdx, %rcx
	movq	%rax, -32(%rbp)         # 8-byte Spill
	jne	.LBB59_2
# %bb.1:
	movq	-32(%rbp), %rax         # 8-byte Reload
	addq	$32, %rsp
	popq	%rbp
	.cfi_def_cfa %rsp, 8
	retq
.LBB59_2:
	.cfi_def_cfa %rbp, 16
	callq	__stack_chk_fail@PLT
.Lfunc_end59:
	.size	_ZNSt6vectorIN2sf9TransformESaIS1_EE5beginEv, .Lfunc_end59-_ZNSt6vectorIN2sf9TransformESaIS1_EE5beginEv
	.cfi_endproc
                                        # -- End function
	.section	.text._ZNK9__gnu_cxx17__normal_iteratorIPN2sf9TransformESt6vectorIS2_SaIS2_EEEplEl,"axG",@progbits,_ZNK9__gnu_cxx17__normal_iteratorIPN2sf9TransformESt6vectorIS2_SaIS2_EEEplEl,comdat
	.weak	_ZNK9__gnu_cxx17__normal_iteratorIPN2sf9TransformESt6vectorIS2_SaIS2_EEEplEl # -- Begin function _ZNK9__gnu_cxx17__normal_iteratorIPN2sf9TransformESt6vectorIS2_SaIS2_EEEplEl
	.p2align	4, 0x90
	.type	_ZNK9__gnu_cxx17__normal_iteratorIPN2sf9TransformESt6vectorIS2_SaIS2_EEEplEl,@function
_ZNK9__gnu_cxx17__normal_iteratorIPN2sf9TransformESt6vectorIS2_SaIS2_EEEplEl: # @_ZNK9__gnu_cxx17__normal_iteratorIPN2sf9TransformESt6vectorIS2_SaIS2_EEEplEl
	.cfi_startproc
# %bb.0:
	pushq	%rbp
	.cfi_def_cfa_offset 16
	.cfi_offset %rbp, -16
	movq	%rsp, %rbp
	.cfi_def_cfa_register %rbp
	subq	$48, %rsp
	movq	%fs:40, %rax
	movq	%rax, -8(%rbp)
	movq	%rdi, -32(%rbp)
	movq	%rsi, -40(%rbp)
	movq	-32(%rbp), %rax
	movq	(%rax), %rax
	movq	-40(%rbp), %rcx
	shlq	$6, %rcx
	addq	%rcx, %rax
	movq	%rax, -24(%rbp)
	leaq	-16(%rbp), %rdi
	leaq	-24(%rbp), %rsi
	callq	_ZN9__gnu_cxx17__normal_iteratorIPN2sf9TransformESt6vectorIS2_SaIS2_EEEC2ERKS3_
	movq	-16(%rbp), %rax
	movq	%fs:40, %rcx
	movq	-8(%rbp), %rdx
	cmpq	%rdx, %rcx
	movq	%rax, -48(%rbp)         # 8-byte Spill
	jne	.LBB60_2
# %bb.1:
	movq	-48(%rbp), %rax         # 8-byte Reload
	addq	$48, %rsp
	popq	%rbp
	.cfi_def_cfa %rsp, 8
	retq
.LBB60_2:
	.cfi_def_cfa %rbp, 16
	callq	__stack_chk_fail@PLT
.Lfunc_end60:
	.size	_ZNK9__gnu_cxx17__normal_iteratorIPN2sf9TransformESt6vectorIS2_SaIS2_EEEplEl, .Lfunc_end60-_ZNK9__gnu_cxx17__normal_iteratorIPN2sf9TransformESt6vectorIS2_SaIS2_EEEplEl
	.cfi_endproc
                                        # -- End function
	.section	.text._ZN9__gnu_cxx17__normal_iteratorIPKN2sf9TransformESt6vectorIS2_SaIS2_EEEC2IPS2_EERKNS0_IT_NS_11__enable_ifIXsr3std10__are_sameISB_SA_EE7__valueES7_E6__typeEEE,"axG",@progbits,_ZN9__gnu_cxx17__normal_iteratorIPKN2sf9TransformESt6vectorIS2_SaIS2_EEEC2IPS2_EERKNS0_IT_NS_11__enable_ifIXsr3std10__are_sameISB_SA_EE7__valueES7_E6__typeEEE,comdat
	.weak	_ZN9__gnu_cxx17__normal_iteratorIPKN2sf9TransformESt6vectorIS2_SaIS2_EEEC2IPS2_EERKNS0_IT_NS_11__enable_ifIXsr3std10__are_sameISB_SA_EE7__valueES7_E6__typeEEE # -- Begin function _ZN9__gnu_cxx17__normal_iteratorIPKN2sf9TransformESt6vectorIS2_SaIS2_EEEC2IPS2_EERKNS0_IT_NS_11__enable_ifIXsr3std10__are_sameISB_SA_EE7__valueES7_E6__typeEEE
	.p2align	4, 0x90
	.type	_ZN9__gnu_cxx17__normal_iteratorIPKN2sf9TransformESt6vectorIS2_SaIS2_EEEC2IPS2_EERKNS0_IT_NS_11__enable_ifIXsr3std10__are_sameISB_SA_EE7__valueES7_E6__typeEEE,@function
_ZN9__gnu_cxx17__normal_iteratorIPKN2sf9TransformESt6vectorIS2_SaIS2_EEEC2IPS2_EERKNS0_IT_NS_11__enable_ifIXsr3std10__are_sameISB_SA_EE7__valueES7_E6__typeEEE: # @_ZN9__gnu_cxx17__normal_iteratorIPKN2sf9TransformESt6vectorIS2_SaIS2_EEEC2IPS2_EERKNS0_IT_NS_11__enable_ifIXsr3std10__are_sameISB_SA_EE7__valueES7_E6__typeEEE
	.cfi_startproc
# %bb.0:
	pushq	%rbp
	.cfi_def_cfa_offset 16
	.cfi_offset %rbp, -16
	movq	%rsp, %rbp
	.cfi_def_cfa_register %rbp
	subq	$32, %rsp
	movq	%rdi, -8(%rbp)
	movq	%rsi, -16(%rbp)
	movq	-8(%rbp), %rax
	movq	-16(%rbp), %rdi
	movq	%rax, -24(%rbp)         # 8-byte Spill
	callq	_ZNK9__gnu_cxx17__normal_iteratorIPN2sf9TransformESt6vectorIS2_SaIS2_EEE4baseEv
	movq	(%rax), %rax
	movq	-24(%rbp), %rcx         # 8-byte Reload
	movq	%rax, (%rcx)
	addq	$32, %rsp
	popq	%rbp
	.cfi_def_cfa %rsp, 8
	retq
.Lfunc_end61:
	.size	_ZN9__gnu_cxx17__normal_iteratorIPKN2sf9TransformESt6vectorIS2_SaIS2_EEEC2IPS2_EERKNS0_IT_NS_11__enable_ifIXsr3std10__are_sameISB_SA_EE7__valueES7_E6__typeEEE, .Lfunc_end61-_ZN9__gnu_cxx17__normal_iteratorIPKN2sf9TransformESt6vectorIS2_SaIS2_EEEC2IPS2_EERKNS0_IT_NS_11__enable_ifIXsr3std10__are_sameISB_SA_EE7__valueES7_E6__typeEEE
	.cfi_endproc
                                        # -- End function
	.section	.text._ZNSt6vectorIN2sf5ImageESaIS1_EE5eraseEN9__gnu_cxx17__normal_iteratorIPKS1_S3_EE,"axG",@progbits,_ZNSt6vectorIN2sf5ImageESaIS1_EE5eraseEN9__gnu_cxx17__normal_iteratorIPKS1_S3_EE,comdat
	.weak	_ZNSt6vectorIN2sf5ImageESaIS1_EE5eraseEN9__gnu_cxx17__normal_iteratorIPKS1_S3_EE # -- Begin function _ZNSt6vectorIN2sf5ImageESaIS1_EE5eraseEN9__gnu_cxx17__normal_iteratorIPKS1_S3_EE
	.p2align	4, 0x90
	.type	_ZNSt6vectorIN2sf5ImageESaIS1_EE5eraseEN9__gnu_cxx17__normal_iteratorIPKS1_S3_EE,@function
_ZNSt6vectorIN2sf5ImageESaIS1_EE5eraseEN9__gnu_cxx17__normal_iteratorIPKS1_S3_EE: # @_ZNSt6vectorIN2sf5ImageESaIS1_EE5eraseEN9__gnu_cxx17__normal_iteratorIPKS1_S3_EE
	.cfi_startproc
# %bb.0:
	pushq	%rbp
	.cfi_def_cfa_offset 16
	.cfi_offset %rbp, -16
	movq	%rsp, %rbp
	.cfi_def_cfa_register %rbp
	subq	$80, %rsp
	movq	%fs:40, %rax
	movq	%rax, -8(%rbp)
	movq	%rsi, -16(%rbp)
	movq	%rdi, -48(%rbp)
	movq	-48(%rbp), %rax
	movq	%rax, %rdi
	movq	%rax, -64(%rbp)         # 8-byte Spill
	callq	_ZNSt6vectorIN2sf5ImageESaIS1_EE5beginEv
	movq	%rax, -24(%rbp)
	movq	-64(%rbp), %rdi         # 8-byte Reload
	callq	_ZNKSt6vectorIN2sf5ImageESaIS1_EE6cbeginEv
	movq	%rax, -32(%rbp)
	leaq	-16(%rbp), %rdi
	leaq	-32(%rbp), %rsi
	callq	_ZN9__gnu_cxxmiIPKN2sf5ImageESt6vectorIS2_SaIS2_EEEENS_17__normal_iteratorIT_T0_E15difference_typeERKSB_SE_
	leaq	-24(%rbp), %rdi
	movq	%rax, %rsi
	callq	_ZNK9__gnu_cxx17__normal_iteratorIPN2sf5ImageESt6vectorIS2_SaIS2_EEEplEl
	movq	%rax, -56(%rbp)
	movq	-56(%rbp), %rsi
	movq	-64(%rbp), %rdi         # 8-byte Reload
	callq	_ZNSt6vectorIN2sf5ImageESaIS1_EE8_M_eraseEN9__gnu_cxx17__normal_iteratorIPS1_S3_EE
	movq	%rax, -40(%rbp)
	movq	-40(%rbp), %rax
	movq	%fs:40, %rcx
	movq	-8(%rbp), %rdx
	cmpq	%rdx, %rcx
	movq	%rax, -72(%rbp)         # 8-byte Spill
	jne	.LBB62_2
# %bb.1:
	movq	-72(%rbp), %rax         # 8-byte Reload
	addq	$80, %rsp
	popq	%rbp
	.cfi_def_cfa %rsp, 8
	retq
.LBB62_2:
	.cfi_def_cfa %rbp, 16
	callq	__stack_chk_fail@PLT
.Lfunc_end62:
	.size	_ZNSt6vectorIN2sf5ImageESaIS1_EE5eraseEN9__gnu_cxx17__normal_iteratorIPKS1_S3_EE, .Lfunc_end62-_ZNSt6vectorIN2sf5ImageESaIS1_EE5eraseEN9__gnu_cxx17__normal_iteratorIPKS1_S3_EE
	.cfi_endproc
                                        # -- End function
	.section	.text._ZNSt6vectorIN2sf5ImageESaIS1_EE5beginEv,"axG",@progbits,_ZNSt6vectorIN2sf5ImageESaIS1_EE5beginEv,comdat
	.weak	_ZNSt6vectorIN2sf5ImageESaIS1_EE5beginEv # -- Begin function _ZNSt6vectorIN2sf5ImageESaIS1_EE5beginEv
	.p2align	4, 0x90
	.type	_ZNSt6vectorIN2sf5ImageESaIS1_EE5beginEv,@function
_ZNSt6vectorIN2sf5ImageESaIS1_EE5beginEv: # @_ZNSt6vectorIN2sf5ImageESaIS1_EE5beginEv
	.cfi_startproc
# %bb.0:
	pushq	%rbp
	.cfi_def_cfa_offset 16
	.cfi_offset %rbp, -16
	movq	%rsp, %rbp
	.cfi_def_cfa_register %rbp
	subq	$32, %rsp
	movq	%fs:40, %rax
	movq	%rax, -8(%rbp)
	movq	%rdi, -24(%rbp)
	movq	-24(%rbp), %rsi
	leaq	-16(%rbp), %rdi
	callq	_ZN9__gnu_cxx17__normal_iteratorIPN2sf5ImageESt6vectorIS2_SaIS2_EEEC2ERKS3_
	movq	-16(%rbp), %rax
	movq	%fs:40, %rcx
	movq	-8(%rbp), %rdx
	cmpq	%rdx, %rcx
	movq	%rax, -32(%rbp)         # 8-byte Spill
	jne	.LBB63_2
# %bb.1:
	movq	-32(%rbp), %rax         # 8-byte Reload
	addq	$32, %rsp
	popq	%rbp
	.cfi_def_cfa %rsp, 8
	retq
.LBB63_2:
	.cfi_def_cfa %rbp, 16
	callq	__stack_chk_fail@PLT
.Lfunc_end63:
	.size	_ZNSt6vectorIN2sf5ImageESaIS1_EE5beginEv, .Lfunc_end63-_ZNSt6vectorIN2sf5ImageESaIS1_EE5beginEv
	.cfi_endproc
                                        # -- End function
	.section	.text._ZNK9__gnu_cxx17__normal_iteratorIPN2sf5ImageESt6vectorIS2_SaIS2_EEEplEl,"axG",@progbits,_ZNK9__gnu_cxx17__normal_iteratorIPN2sf5ImageESt6vectorIS2_SaIS2_EEEplEl,comdat
	.weak	_ZNK9__gnu_cxx17__normal_iteratorIPN2sf5ImageESt6vectorIS2_SaIS2_EEEplEl # -- Begin function _ZNK9__gnu_cxx17__normal_iteratorIPN2sf5ImageESt6vectorIS2_SaIS2_EEEplEl
	.p2align	4, 0x90
	.type	_ZNK9__gnu_cxx17__normal_iteratorIPN2sf5ImageESt6vectorIS2_SaIS2_EEEplEl,@function
_ZNK9__gnu_cxx17__normal_iteratorIPN2sf5ImageESt6vectorIS2_SaIS2_EEEplEl: # @_ZNK9__gnu_cxx17__normal_iteratorIPN2sf5ImageESt6vectorIS2_SaIS2_EEEplEl
	.cfi_startproc
# %bb.0:
	pushq	%rbp
	.cfi_def_cfa_offset 16
	.cfi_offset %rbp, -16
	movq	%rsp, %rbp
	.cfi_def_cfa_register %rbp
	subq	$48, %rsp
	movq	%fs:40, %rax
	movq	%rax, -8(%rbp)
	movq	%rdi, -32(%rbp)
	movq	%rsi, -40(%rbp)
	movq	-32(%rbp), %rax
	movq	(%rax), %rax
	movq	-40(%rbp), %rcx
	shlq	$5, %rcx
	addq	%rcx, %rax
	movq	%rax, -24(%rbp)
	leaq	-16(%rbp), %rdi
	leaq	-24(%rbp), %rsi
	callq	_ZN9__gnu_cxx17__normal_iteratorIPN2sf5ImageESt6vectorIS2_SaIS2_EEEC2ERKS3_
	movq	-16(%rbp), %rax
	movq	%fs:40, %rcx
	movq	-8(%rbp), %rdx
	cmpq	%rdx, %rcx
	movq	%rax, -48(%rbp)         # 8-byte Spill
	jne	.LBB64_2
# %bb.1:
	movq	-48(%rbp), %rax         # 8-byte Reload
	addq	$48, %rsp
	popq	%rbp
	.cfi_def_cfa %rsp, 8
	retq
.LBB64_2:
	.cfi_def_cfa %rbp, 16
	callq	__stack_chk_fail@PLT
.Lfunc_end64:
	.size	_ZNK9__gnu_cxx17__normal_iteratorIPN2sf5ImageESt6vectorIS2_SaIS2_EEEplEl, .Lfunc_end64-_ZNK9__gnu_cxx17__normal_iteratorIPN2sf5ImageESt6vectorIS2_SaIS2_EEEplEl
	.cfi_endproc
                                        # -- End function
	.section	.text._ZN9__gnu_cxx17__normal_iteratorIPKN2sf5ImageESt6vectorIS2_SaIS2_EEEC2IPS2_EERKNS0_IT_NS_11__enable_ifIXsr3std10__are_sameISB_SA_EE7__valueES7_E6__typeEEE,"axG",@progbits,_ZN9__gnu_cxx17__normal_iteratorIPKN2sf5ImageESt6vectorIS2_SaIS2_EEEC2IPS2_EERKNS0_IT_NS_11__enable_ifIXsr3std10__are_sameISB_SA_EE7__valueES7_E6__typeEEE,comdat
	.weak	_ZN9__gnu_cxx17__normal_iteratorIPKN2sf5ImageESt6vectorIS2_SaIS2_EEEC2IPS2_EERKNS0_IT_NS_11__enable_ifIXsr3std10__are_sameISB_SA_EE7__valueES7_E6__typeEEE # -- Begin function _ZN9__gnu_cxx17__normal_iteratorIPKN2sf5ImageESt6vectorIS2_SaIS2_EEEC2IPS2_EERKNS0_IT_NS_11__enable_ifIXsr3std10__are_sameISB_SA_EE7__valueES7_E6__typeEEE
	.p2align	4, 0x90
	.type	_ZN9__gnu_cxx17__normal_iteratorIPKN2sf5ImageESt6vectorIS2_SaIS2_EEEC2IPS2_EERKNS0_IT_NS_11__enable_ifIXsr3std10__are_sameISB_SA_EE7__valueES7_E6__typeEEE,@function
_ZN9__gnu_cxx17__normal_iteratorIPKN2sf5ImageESt6vectorIS2_SaIS2_EEEC2IPS2_EERKNS0_IT_NS_11__enable_ifIXsr3std10__are_sameISB_SA_EE7__valueES7_E6__typeEEE: # @_ZN9__gnu_cxx17__normal_iteratorIPKN2sf5ImageESt6vectorIS2_SaIS2_EEEC2IPS2_EERKNS0_IT_NS_11__enable_ifIXsr3std10__are_sameISB_SA_EE7__valueES7_E6__typeEEE
	.cfi_startproc
# %bb.0:
	pushq	%rbp
	.cfi_def_cfa_offset 16
	.cfi_offset %rbp, -16
	movq	%rsp, %rbp
	.cfi_def_cfa_register %rbp
	subq	$32, %rsp
	movq	%rdi, -8(%rbp)
	movq	%rsi, -16(%rbp)
	movq	-8(%rbp), %rax
	movq	-16(%rbp), %rdi
	movq	%rax, -24(%rbp)         # 8-byte Spill
	callq	_ZNK9__gnu_cxx17__normal_iteratorIPN2sf5ImageESt6vectorIS2_SaIS2_EEE4baseEv
	movq	(%rax), %rax
	movq	-24(%rbp), %rcx         # 8-byte Reload
	movq	%rax, (%rcx)
	addq	$32, %rsp
	popq	%rbp
	.cfi_def_cfa %rsp, 8
	retq
.Lfunc_end65:
	.size	_ZN9__gnu_cxx17__normal_iteratorIPKN2sf5ImageESt6vectorIS2_SaIS2_EEEC2IPS2_EERKNS0_IT_NS_11__enable_ifIXsr3std10__are_sameISB_SA_EE7__valueES7_E6__typeEEE, .Lfunc_end65-_ZN9__gnu_cxx17__normal_iteratorIPKN2sf5ImageESt6vectorIS2_SaIS2_EEEC2IPS2_EERKNS0_IT_NS_11__enable_ifIXsr3std10__are_sameISB_SA_EE7__valueES7_E6__typeEEE
	.cfi_endproc
                                        # -- End function
	.section	.text._ZNSt6vectorIN2sf7TextureESaIS1_EE5eraseEN9__gnu_cxx17__normal_iteratorIPKS1_S3_EE,"axG",@progbits,_ZNSt6vectorIN2sf7TextureESaIS1_EE5eraseEN9__gnu_cxx17__normal_iteratorIPKS1_S3_EE,comdat
	.weak	_ZNSt6vectorIN2sf7TextureESaIS1_EE5eraseEN9__gnu_cxx17__normal_iteratorIPKS1_S3_EE # -- Begin function _ZNSt6vectorIN2sf7TextureESaIS1_EE5eraseEN9__gnu_cxx17__normal_iteratorIPKS1_S3_EE
	.p2align	4, 0x90
	.type	_ZNSt6vectorIN2sf7TextureESaIS1_EE5eraseEN9__gnu_cxx17__normal_iteratorIPKS1_S3_EE,@function
_ZNSt6vectorIN2sf7TextureESaIS1_EE5eraseEN9__gnu_cxx17__normal_iteratorIPKS1_S3_EE: # @_ZNSt6vectorIN2sf7TextureESaIS1_EE5eraseEN9__gnu_cxx17__normal_iteratorIPKS1_S3_EE
	.cfi_startproc
# %bb.0:
	pushq	%rbp
	.cfi_def_cfa_offset 16
	.cfi_offset %rbp, -16
	movq	%rsp, %rbp
	.cfi_def_cfa_register %rbp
	subq	$80, %rsp
	movq	%fs:40, %rax
	movq	%rax, -8(%rbp)
	movq	%rsi, -16(%rbp)
	movq	%rdi, -48(%rbp)
	movq	-48(%rbp), %rax
	movq	%rax, %rdi
	movq	%rax, -64(%rbp)         # 8-byte Spill
	callq	_ZNSt6vectorIN2sf7TextureESaIS1_EE5beginEv
	movq	%rax, -24(%rbp)
	movq	-64(%rbp), %rdi         # 8-byte Reload
	callq	_ZNKSt6vectorIN2sf7TextureESaIS1_EE6cbeginEv
	movq	%rax, -32(%rbp)
	leaq	-16(%rbp), %rdi
	leaq	-32(%rbp), %rsi
	callq	_ZN9__gnu_cxxmiIPKN2sf7TextureESt6vectorIS2_SaIS2_EEEENS_17__normal_iteratorIT_T0_E15difference_typeERKSB_SE_
	leaq	-24(%rbp), %rdi
	movq	%rax, %rsi
	callq	_ZNK9__gnu_cxx17__normal_iteratorIPN2sf7TextureESt6vectorIS2_SaIS2_EEEplEl
	movq	%rax, -56(%rbp)
	movq	-56(%rbp), %rsi
	movq	-64(%rbp), %rdi         # 8-byte Reload
	callq	_ZNSt6vectorIN2sf7TextureESaIS1_EE8_M_eraseEN9__gnu_cxx17__normal_iteratorIPS1_S3_EE
	movq	%rax, -40(%rbp)
	movq	-40(%rbp), %rax
	movq	%fs:40, %rcx
	movq	-8(%rbp), %rdx
	cmpq	%rdx, %rcx
	movq	%rax, -72(%rbp)         # 8-byte Spill
	jne	.LBB66_2
# %bb.1:
	movq	-72(%rbp), %rax         # 8-byte Reload
	addq	$80, %rsp
	popq	%rbp
	.cfi_def_cfa %rsp, 8
	retq
.LBB66_2:
	.cfi_def_cfa %rbp, 16
	callq	__stack_chk_fail@PLT
.Lfunc_end66:
	.size	_ZNSt6vectorIN2sf7TextureESaIS1_EE5eraseEN9__gnu_cxx17__normal_iteratorIPKS1_S3_EE, .Lfunc_end66-_ZNSt6vectorIN2sf7TextureESaIS1_EE5eraseEN9__gnu_cxx17__normal_iteratorIPKS1_S3_EE
	.cfi_endproc
                                        # -- End function
	.section	.text._ZNSt6vectorIN2sf7TextureESaIS1_EE5beginEv,"axG",@progbits,_ZNSt6vectorIN2sf7TextureESaIS1_EE5beginEv,comdat
	.weak	_ZNSt6vectorIN2sf7TextureESaIS1_EE5beginEv # -- Begin function _ZNSt6vectorIN2sf7TextureESaIS1_EE5beginEv
	.p2align	4, 0x90
	.type	_ZNSt6vectorIN2sf7TextureESaIS1_EE5beginEv,@function
_ZNSt6vectorIN2sf7TextureESaIS1_EE5beginEv: # @_ZNSt6vectorIN2sf7TextureESaIS1_EE5beginEv
	.cfi_startproc
# %bb.0:
	pushq	%rbp
	.cfi_def_cfa_offset 16
	.cfi_offset %rbp, -16
	movq	%rsp, %rbp
	.cfi_def_cfa_register %rbp
	subq	$32, %rsp
	movq	%fs:40, %rax
	movq	%rax, -8(%rbp)
	movq	%rdi, -24(%rbp)
	movq	-24(%rbp), %rsi
	leaq	-16(%rbp), %rdi
	callq	_ZN9__gnu_cxx17__normal_iteratorIPN2sf7TextureESt6vectorIS2_SaIS2_EEEC2ERKS3_
	movq	-16(%rbp), %rax
	movq	%fs:40, %rcx
	movq	-8(%rbp), %rdx
	cmpq	%rdx, %rcx
	movq	%rax, -32(%rbp)         # 8-byte Spill
	jne	.LBB67_2
# %bb.1:
	movq	-32(%rbp), %rax         # 8-byte Reload
	addq	$32, %rsp
	popq	%rbp
	.cfi_def_cfa %rsp, 8
	retq
.LBB67_2:
	.cfi_def_cfa %rbp, 16
	callq	__stack_chk_fail@PLT
.Lfunc_end67:
	.size	_ZNSt6vectorIN2sf7TextureESaIS1_EE5beginEv, .Lfunc_end67-_ZNSt6vectorIN2sf7TextureESaIS1_EE5beginEv
	.cfi_endproc
                                        # -- End function
	.section	.text._ZNK9__gnu_cxx17__normal_iteratorIPN2sf7TextureESt6vectorIS2_SaIS2_EEEplEl,"axG",@progbits,_ZNK9__gnu_cxx17__normal_iteratorIPN2sf7TextureESt6vectorIS2_SaIS2_EEEplEl,comdat
	.weak	_ZNK9__gnu_cxx17__normal_iteratorIPN2sf7TextureESt6vectorIS2_SaIS2_EEEplEl # -- Begin function _ZNK9__gnu_cxx17__normal_iteratorIPN2sf7TextureESt6vectorIS2_SaIS2_EEEplEl
	.p2align	4, 0x90
	.type	_ZNK9__gnu_cxx17__normal_iteratorIPN2sf7TextureESt6vectorIS2_SaIS2_EEEplEl,@function
_ZNK9__gnu_cxx17__normal_iteratorIPN2sf7TextureESt6vectorIS2_SaIS2_EEEplEl: # @_ZNK9__gnu_cxx17__normal_iteratorIPN2sf7TextureESt6vectorIS2_SaIS2_EEEplEl
	.cfi_startproc
# %bb.0:
	pushq	%rbp
	.cfi_def_cfa_offset 16
	.cfi_offset %rbp, -16
	movq	%rsp, %rbp
	.cfi_def_cfa_register %rbp
	subq	$48, %rsp
	movq	%fs:40, %rax
	movq	%rax, -8(%rbp)
	movq	%rdi, -32(%rbp)
	movq	%rsi, -40(%rbp)
	movq	-32(%rbp), %rax
	movq	(%rax), %rax
	movq	-40(%rbp), %rcx
	leaq	(%rcx,%rcx,4), %rcx
	leaq	(%rax,%rcx,8), %rax
	movq	%rax, -24(%rbp)
	leaq	-16(%rbp), %rdi
	leaq	-24(%rbp), %rsi
	callq	_ZN9__gnu_cxx17__normal_iteratorIPN2sf7TextureESt6vectorIS2_SaIS2_EEEC2ERKS3_
	movq	-16(%rbp), %rax
	movq	%fs:40, %rcx
	movq	-8(%rbp), %rdx
	cmpq	%rdx, %rcx
	movq	%rax, -48(%rbp)         # 8-byte Spill
	jne	.LBB68_2
# %bb.1:
	movq	-48(%rbp), %rax         # 8-byte Reload
	addq	$48, %rsp
	popq	%rbp
	.cfi_def_cfa %rsp, 8
	retq
.LBB68_2:
	.cfi_def_cfa %rbp, 16
	callq	__stack_chk_fail@PLT
.Lfunc_end68:
	.size	_ZNK9__gnu_cxx17__normal_iteratorIPN2sf7TextureESt6vectorIS2_SaIS2_EEEplEl, .Lfunc_end68-_ZNK9__gnu_cxx17__normal_iteratorIPN2sf7TextureESt6vectorIS2_SaIS2_EEEplEl
	.cfi_endproc
                                        # -- End function
	.section	.text._ZN9__gnu_cxx17__normal_iteratorIPKN2sf7TextureESt6vectorIS2_SaIS2_EEEC2IPS2_EERKNS0_IT_NS_11__enable_ifIXsr3std10__are_sameISB_SA_EE7__valueES7_E6__typeEEE,"axG",@progbits,_ZN9__gnu_cxx17__normal_iteratorIPKN2sf7TextureESt6vectorIS2_SaIS2_EEEC2IPS2_EERKNS0_IT_NS_11__enable_ifIXsr3std10__are_sameISB_SA_EE7__valueES7_E6__typeEEE,comdat
	.weak	_ZN9__gnu_cxx17__normal_iteratorIPKN2sf7TextureESt6vectorIS2_SaIS2_EEEC2IPS2_EERKNS0_IT_NS_11__enable_ifIXsr3std10__are_sameISB_SA_EE7__valueES7_E6__typeEEE # -- Begin function _ZN9__gnu_cxx17__normal_iteratorIPKN2sf7TextureESt6vectorIS2_SaIS2_EEEC2IPS2_EERKNS0_IT_NS_11__enable_ifIXsr3std10__are_sameISB_SA_EE7__valueES7_E6__typeEEE
	.p2align	4, 0x90
	.type	_ZN9__gnu_cxx17__normal_iteratorIPKN2sf7TextureESt6vectorIS2_SaIS2_EEEC2IPS2_EERKNS0_IT_NS_11__enable_ifIXsr3std10__are_sameISB_SA_EE7__valueES7_E6__typeEEE,@function
_ZN9__gnu_cxx17__normal_iteratorIPKN2sf7TextureESt6vectorIS2_SaIS2_EEEC2IPS2_EERKNS0_IT_NS_11__enable_ifIXsr3std10__are_sameISB_SA_EE7__valueES7_E6__typeEEE: # @_ZN9__gnu_cxx17__normal_iteratorIPKN2sf7TextureESt6vectorIS2_SaIS2_EEEC2IPS2_EERKNS0_IT_NS_11__enable_ifIXsr3std10__are_sameISB_SA_EE7__valueES7_E6__typeEEE
	.cfi_startproc
# %bb.0:
	pushq	%rbp
	.cfi_def_cfa_offset 16
	.cfi_offset %rbp, -16
	movq	%rsp, %rbp
	.cfi_def_cfa_register %rbp
	subq	$32, %rsp
	movq	%rdi, -8(%rbp)
	movq	%rsi, -16(%rbp)
	movq	-8(%rbp), %rax
	movq	-16(%rbp), %rdi
	movq	%rax, -24(%rbp)         # 8-byte Spill
	callq	_ZNK9__gnu_cxx17__normal_iteratorIPN2sf7TextureESt6vectorIS2_SaIS2_EEE4baseEv
	movq	(%rax), %rax
	movq	-24(%rbp), %rcx         # 8-byte Reload
	movq	%rax, (%rcx)
	addq	$32, %rsp
	popq	%rbp
	.cfi_def_cfa %rsp, 8
	retq
.Lfunc_end69:
	.size	_ZN9__gnu_cxx17__normal_iteratorIPKN2sf7TextureESt6vectorIS2_SaIS2_EEEC2IPS2_EERKNS0_IT_NS_11__enable_ifIXsr3std10__are_sameISB_SA_EE7__valueES7_E6__typeEEE, .Lfunc_end69-_ZN9__gnu_cxx17__normal_iteratorIPKN2sf7TextureESt6vectorIS2_SaIS2_EEEC2IPS2_EERKNS0_IT_NS_11__enable_ifIXsr3std10__are_sameISB_SA_EE7__valueES7_E6__typeEEE
	.cfi_endproc
                                        # -- End function
	.section	.text._ZNSt6vectorIbSaIbEE5eraseESt19_Bit_const_iterator,"axG",@progbits,_ZNSt6vectorIbSaIbEE5eraseESt19_Bit_const_iterator,comdat
	.weak	_ZNSt6vectorIbSaIbEE5eraseESt19_Bit_const_iterator # -- Begin function _ZNSt6vectorIbSaIbEE5eraseESt19_Bit_const_iterator
	.p2align	4, 0x90
	.type	_ZNSt6vectorIbSaIbEE5eraseESt19_Bit_const_iterator,@function
_ZNSt6vectorIbSaIbEE5eraseESt19_Bit_const_iterator: # @_ZNSt6vectorIbSaIbEE5eraseESt19_Bit_const_iterator
	.cfi_startproc
# %bb.0:
	pushq	%rbp
	.cfi_def_cfa_offset 16
	.cfi_offset %rbp, -16
	movq	%rsp, %rbp
	.cfi_def_cfa_register %rbp
	subq	$96, %rsp
	movq	%fs:40, %rax
	movq	%rax, -8(%rbp)
	movq	%rsi, -40(%rbp)
	movl	%edx, -32(%rbp)
	movq	%rdi, -64(%rbp)
	movq	-64(%rbp), %rdi
	leaq	-40(%rbp), %rax
	movq	%rdi, -72(%rbp)         # 8-byte Spill
	movq	%rax, %rdi
	callq	_ZNKSt19_Bit_const_iterator13_M_const_castEv
	movq	%rax, -56(%rbp)
	movl	%edx, -48(%rbp)
	movq	-56(%rbp), %rsi
	movl	-48(%rbp), %edx
	movq	-72(%rbp), %rdi         # 8-byte Reload
	callq	_ZNSt6vectorIbSaIbEE8_M_eraseESt13_Bit_iterator
	movq	%rax, -24(%rbp)
	movl	%edx, -16(%rbp)
	movl	-16(%rbp), %edx
	movq	-24(%rbp), %rax
	movq	%fs:40, %rcx
	movq	-8(%rbp), %rsi
	cmpq	%rsi, %rcx
	movl	%edx, -76(%rbp)         # 4-byte Spill
	movq	%rax, -88(%rbp)         # 8-byte Spill
	jne	.LBB70_2
# %bb.1:
	movq	-88(%rbp), %rax         # 8-byte Reload
	movl	-76(%rbp), %edx         # 4-byte Reload
	addq	$96, %rsp
	popq	%rbp
	.cfi_def_cfa %rsp, 8
	retq
.LBB70_2:
	.cfi_def_cfa %rbp, 16
	callq	__stack_chk_fail@PLT
.Lfunc_end70:
	.size	_ZNSt6vectorIbSaIbEE5eraseESt19_Bit_const_iterator, .Lfunc_end70-_ZNSt6vectorIbSaIbEE5eraseESt19_Bit_const_iterator
	.cfi_endproc
                                        # -- End function
	.section	.text._ZStplRKSt13_Bit_iteratorl,"axG",@progbits,_ZStplRKSt13_Bit_iteratorl,comdat
	.weak	_ZStplRKSt13_Bit_iteratorl # -- Begin function _ZStplRKSt13_Bit_iteratorl
	.p2align	4, 0x90
	.type	_ZStplRKSt13_Bit_iteratorl,@function
_ZStplRKSt13_Bit_iteratorl:             # @_ZStplRKSt13_Bit_iteratorl
	.cfi_startproc
# %bb.0:
	pushq	%rbp
	.cfi_def_cfa_offset 16
	.cfi_offset %rbp, -16
	movq	%rsp, %rbp
	.cfi_def_cfa_register %rbp
	subq	$64, %rsp
	movq	%fs:40, %rax
	movq	%rax, -8(%rbp)
	movq	%rdi, -40(%rbp)
	movq	%rsi, -48(%rbp)
	movq	-40(%rbp), %rax
	vmovdqu	(%rax), %xmm0
	vmovdqa	%xmm0, -32(%rbp)
	movq	-48(%rbp), %rsi
	leaq	-32(%rbp), %rdi
	callq	_ZNSt13_Bit_iteratorpLEl
	movl	-24(%rbp), %edx
	movq	-32(%rbp), %rcx
	movq	%fs:40, %rsi
	movq	-8(%rbp), %rdi
	cmpq	%rdi, %rsi
	movl	%edx, -52(%rbp)         # 4-byte Spill
	movq	%rcx, -64(%rbp)         # 8-byte Spill
	jne	.LBB71_2
# %bb.1:
	movq	-64(%rbp), %rax         # 8-byte Reload
	movl	-52(%rbp), %edx         # 4-byte Reload
	addq	$64, %rsp
	popq	%rbp
	.cfi_def_cfa %rsp, 8
	retq
.LBB71_2:
	.cfi_def_cfa %rbp, 16
	callq	__stack_chk_fail@PLT
.Lfunc_end71:
	.size	_ZStplRKSt13_Bit_iteratorl, .Lfunc_end71-_ZStplRKSt13_Bit_iteratorl
	.cfi_endproc
                                        # -- End function
	.section	.text._ZNSt6vectorIbSaIbEE5beginEv,"axG",@progbits,_ZNSt6vectorIbSaIbEE5beginEv,comdat
	.weak	_ZNSt6vectorIbSaIbEE5beginEv # -- Begin function _ZNSt6vectorIbSaIbEE5beginEv
	.p2align	4, 0x90
	.type	_ZNSt6vectorIbSaIbEE5beginEv,@function
_ZNSt6vectorIbSaIbEE5beginEv:           # @_ZNSt6vectorIbSaIbEE5beginEv
.Lfunc_begin12:
	.cfi_startproc
	.cfi_personality 155, DW.ref.__gxx_personality_v0
	.cfi_lsda 27, .Lexception12
# %bb.0:
	pushq	%rbp
	.cfi_def_cfa_offset 16
	.cfi_offset %rbp, -16
	movq	%rsp, %rbp
	.cfi_def_cfa_register %rbp
	subq	$64, %rsp
	movq	%fs:40, %rax
	movq	%rax, -8(%rbp)
	movq	%rdi, -32(%rbp)
	movq	-32(%rbp), %rax
	movq	(%rax), %rsi
.Ltmp161:
	leaq	-24(%rbp), %rdi
	xorl	%edx, %edx
	callq	_ZNSt13_Bit_iteratorC2EPmj
.Ltmp162:
	jmp	.LBB72_1
.LBB72_1:
	movl	-16(%rbp), %edx
	movq	-24(%rbp), %rax
	movq	%fs:40, %rcx
	movq	-8(%rbp), %rsi
	cmpq	%rsi, %rcx
	movl	%edx, -36(%rbp)         # 4-byte Spill
	movq	%rax, -48(%rbp)         # 8-byte Spill
	jne	.LBB72_4
# %bb.2:
	movq	-48(%rbp), %rax         # 8-byte Reload
	movl	-36(%rbp), %edx         # 4-byte Reload
	addq	$64, %rsp
	popq	%rbp
	.cfi_def_cfa %rsp, 8
	retq
.LBB72_3:
	.cfi_def_cfa %rbp, 16
.Ltmp163:
                                        # kill: def $edx killed $edx killed $rdx
	movq	%rax, %rdi
	movl	%edx, -52(%rbp)         # 4-byte Spill
	callq	__clang_call_terminate
.LBB72_4:
	callq	__stack_chk_fail@PLT
.Lfunc_end72:
	.size	_ZNSt6vectorIbSaIbEE5beginEv, .Lfunc_end72-_ZNSt6vectorIbSaIbEE5beginEv
	.cfi_endproc
	.section	.gcc_except_table,"a",@progbits
	.p2align	2
GCC_except_table72:
.Lexception12:
	.byte	255                     # @LPStart Encoding = omit
	.byte	156                     # @TType Encoding = indirect pcrel sdata8
	.uleb128 .Lttbase7-.Lttbaseref7
.Lttbaseref7:
	.byte	1                       # Call site Encoding = uleb128
	.uleb128 .Lcst_end12-.Lcst_begin12
.Lcst_begin12:
	.uleb128 .Ltmp161-.Lfunc_begin12 # >> Call Site 1 <<
	.uleb128 .Ltmp162-.Ltmp161      #   Call between .Ltmp161 and .Ltmp162
	.uleb128 .Ltmp163-.Lfunc_begin12 #     jumps to .Ltmp163
	.byte	1                       #   On action: 1
	.uleb128 .Ltmp162-.Lfunc_begin12 # >> Call Site 2 <<
	.uleb128 .Lfunc_end72-.Ltmp162  #   Call between .Ltmp162 and .Lfunc_end72
	.byte	0                       #     has no landing pad
	.byte	0                       #   On action: cleanup
.Lcst_end12:
	.byte	1                       # >> Action Record 1 <<
                                        #   Catch TypeInfo 1
	.byte	0                       #   No further actions
	.p2align	2
                                        # >> Catch TypeInfos <<
	.quad	0                       # TypeInfo 1
.Lttbase7:
	.p2align	2
                                        # -- End function
	.section	.text._ZNSt19_Bit_const_iteratorC2ERKSt13_Bit_iterator,"axG",@progbits,_ZNSt19_Bit_const_iteratorC2ERKSt13_Bit_iterator,comdat
	.weak	_ZNSt19_Bit_const_iteratorC2ERKSt13_Bit_iterator # -- Begin function _ZNSt19_Bit_const_iteratorC2ERKSt13_Bit_iterator
	.p2align	4, 0x90
	.type	_ZNSt19_Bit_const_iteratorC2ERKSt13_Bit_iterator,@function
_ZNSt19_Bit_const_iteratorC2ERKSt13_Bit_iterator: # @_ZNSt19_Bit_const_iteratorC2ERKSt13_Bit_iterator
	.cfi_startproc
# %bb.0:
	pushq	%rbp
	.cfi_def_cfa_offset 16
	.cfi_offset %rbp, -16
	movq	%rsp, %rbp
	.cfi_def_cfa_register %rbp
	subq	$16, %rsp
	movq	%rdi, -8(%rbp)
	movq	%rsi, -16(%rbp)
	movq	-8(%rbp), %rax
	movq	-16(%rbp), %rcx
	movq	(%rcx), %rsi
	movq	-16(%rbp), %rcx
	movl	8(%rcx), %edx
	movq	%rax, %rdi
	callq	_ZNSt18_Bit_iterator_baseC2EPmj
	addq	$16, %rsp
	popq	%rbp
	.cfi_def_cfa %rsp, 8
	retq
.Lfunc_end73:
	.size	_ZNSt19_Bit_const_iteratorC2ERKSt13_Bit_iterator, .Lfunc_end73-_ZNSt19_Bit_const_iteratorC2ERKSt13_Bit_iterator
	.cfi_endproc
                                        # -- End function
	.section	.text._ZNSt6vectorIP10CollectionSaIS1_EE5eraseEN9__gnu_cxx17__normal_iteratorIPKS1_S3_EE,"axG",@progbits,_ZNSt6vectorIP10CollectionSaIS1_EE5eraseEN9__gnu_cxx17__normal_iteratorIPKS1_S3_EE,comdat
	.weak	_ZNSt6vectorIP10CollectionSaIS1_EE5eraseEN9__gnu_cxx17__normal_iteratorIPKS1_S3_EE # -- Begin function _ZNSt6vectorIP10CollectionSaIS1_EE5eraseEN9__gnu_cxx17__normal_iteratorIPKS1_S3_EE
	.p2align	4, 0x90
	.type	_ZNSt6vectorIP10CollectionSaIS1_EE5eraseEN9__gnu_cxx17__normal_iteratorIPKS1_S3_EE,@function
_ZNSt6vectorIP10CollectionSaIS1_EE5eraseEN9__gnu_cxx17__normal_iteratorIPKS1_S3_EE: # @_ZNSt6vectorIP10CollectionSaIS1_EE5eraseEN9__gnu_cxx17__normal_iteratorIPKS1_S3_EE
	.cfi_startproc
# %bb.0:
	pushq	%rbp
	.cfi_def_cfa_offset 16
	.cfi_offset %rbp, -16
	movq	%rsp, %rbp
	.cfi_def_cfa_register %rbp
	subq	$80, %rsp
	movq	%fs:40, %rax
	movq	%rax, -8(%rbp)
	movq	%rsi, -16(%rbp)
	movq	%rdi, -48(%rbp)
	movq	-48(%rbp), %rax
	movq	%rax, %rdi
	movq	%rax, -64(%rbp)         # 8-byte Spill
	callq	_ZNSt6vectorIP10CollectionSaIS1_EE5beginEv
	movq	%rax, -24(%rbp)
	movq	-64(%rbp), %rdi         # 8-byte Reload
	callq	_ZNKSt6vectorIP10CollectionSaIS1_EE6cbeginEv
	movq	%rax, -32(%rbp)
	leaq	-16(%rbp), %rdi
	leaq	-32(%rbp), %rsi
	callq	_ZN9__gnu_cxxmiIPKP10CollectionSt6vectorIS2_SaIS2_EEEENS_17__normal_iteratorIT_T0_E15difference_typeERKSB_SE_
	leaq	-24(%rbp), %rdi
	movq	%rax, %rsi
	callq	_ZNK9__gnu_cxx17__normal_iteratorIPP10CollectionSt6vectorIS2_SaIS2_EEEplEl
	movq	%rax, -56(%rbp)
	movq	-56(%rbp), %rsi
	movq	-64(%rbp), %rdi         # 8-byte Reload
	callq	_ZNSt6vectorIP10CollectionSaIS1_EE8_M_eraseEN9__gnu_cxx17__normal_iteratorIPS1_S3_EE
	movq	%rax, -40(%rbp)
	movq	-40(%rbp), %rax
	movq	%fs:40, %rcx
	movq	-8(%rbp), %rdx
	cmpq	%rdx, %rcx
	movq	%rax, -72(%rbp)         # 8-byte Spill
	jne	.LBB74_2
# %bb.1:
	movq	-72(%rbp), %rax         # 8-byte Reload
	addq	$80, %rsp
	popq	%rbp
	.cfi_def_cfa %rsp, 8
	retq
.LBB74_2:
	.cfi_def_cfa %rbp, 16
	callq	__stack_chk_fail@PLT
.Lfunc_end74:
	.size	_ZNSt6vectorIP10CollectionSaIS1_EE5eraseEN9__gnu_cxx17__normal_iteratorIPKS1_S3_EE, .Lfunc_end74-_ZNSt6vectorIP10CollectionSaIS1_EE5eraseEN9__gnu_cxx17__normal_iteratorIPKS1_S3_EE
	.cfi_endproc
                                        # -- End function
	.section	.text._ZNSt6vectorIP10CollectionSaIS1_EE5beginEv,"axG",@progbits,_ZNSt6vectorIP10CollectionSaIS1_EE5beginEv,comdat
	.weak	_ZNSt6vectorIP10CollectionSaIS1_EE5beginEv # -- Begin function _ZNSt6vectorIP10CollectionSaIS1_EE5beginEv
	.p2align	4, 0x90
	.type	_ZNSt6vectorIP10CollectionSaIS1_EE5beginEv,@function
_ZNSt6vectorIP10CollectionSaIS1_EE5beginEv: # @_ZNSt6vectorIP10CollectionSaIS1_EE5beginEv
	.cfi_startproc
# %bb.0:
	pushq	%rbp
	.cfi_def_cfa_offset 16
	.cfi_offset %rbp, -16
	movq	%rsp, %rbp
	.cfi_def_cfa_register %rbp
	subq	$32, %rsp
	movq	%fs:40, %rax
	movq	%rax, -8(%rbp)
	movq	%rdi, -24(%rbp)
	movq	-24(%rbp), %rsi
	leaq	-16(%rbp), %rdi
	callq	_ZN9__gnu_cxx17__normal_iteratorIPP10CollectionSt6vectorIS2_SaIS2_EEEC2ERKS3_
	movq	-16(%rbp), %rax
	movq	%fs:40, %rcx
	movq	-8(%rbp), %rdx
	cmpq	%rdx, %rcx
	movq	%rax, -32(%rbp)         # 8-byte Spill
	jne	.LBB75_2
# %bb.1:
	movq	-32(%rbp), %rax         # 8-byte Reload
	addq	$32, %rsp
	popq	%rbp
	.cfi_def_cfa %rsp, 8
	retq
.LBB75_2:
	.cfi_def_cfa %rbp, 16
	callq	__stack_chk_fail@PLT
.Lfunc_end75:
	.size	_ZNSt6vectorIP10CollectionSaIS1_EE5beginEv, .Lfunc_end75-_ZNSt6vectorIP10CollectionSaIS1_EE5beginEv
	.cfi_endproc
                                        # -- End function
	.section	.text._ZNK9__gnu_cxx17__normal_iteratorIPP10CollectionSt6vectorIS2_SaIS2_EEEplEl,"axG",@progbits,_ZNK9__gnu_cxx17__normal_iteratorIPP10CollectionSt6vectorIS2_SaIS2_EEEplEl,comdat
	.weak	_ZNK9__gnu_cxx17__normal_iteratorIPP10CollectionSt6vectorIS2_SaIS2_EEEplEl # -- Begin function _ZNK9__gnu_cxx17__normal_iteratorIPP10CollectionSt6vectorIS2_SaIS2_EEEplEl
	.p2align	4, 0x90
	.type	_ZNK9__gnu_cxx17__normal_iteratorIPP10CollectionSt6vectorIS2_SaIS2_EEEplEl,@function
_ZNK9__gnu_cxx17__normal_iteratorIPP10CollectionSt6vectorIS2_SaIS2_EEEplEl: # @_ZNK9__gnu_cxx17__normal_iteratorIPP10CollectionSt6vectorIS2_SaIS2_EEEplEl
	.cfi_startproc
# %bb.0:
	pushq	%rbp
	.cfi_def_cfa_offset 16
	.cfi_offset %rbp, -16
	movq	%rsp, %rbp
	.cfi_def_cfa_register %rbp
	subq	$48, %rsp
	movq	%fs:40, %rax
	movq	%rax, -8(%rbp)
	movq	%rdi, -32(%rbp)
	movq	%rsi, -40(%rbp)
	movq	-32(%rbp), %rax
	movq	(%rax), %rax
	movq	-40(%rbp), %rcx
	leaq	(%rax,%rcx,8), %rax
	movq	%rax, -24(%rbp)
	leaq	-16(%rbp), %rdi
	leaq	-24(%rbp), %rsi
	callq	_ZN9__gnu_cxx17__normal_iteratorIPP10CollectionSt6vectorIS2_SaIS2_EEEC2ERKS3_
	movq	-16(%rbp), %rax
	movq	%fs:40, %rcx
	movq	-8(%rbp), %rdx
	cmpq	%rdx, %rcx
	movq	%rax, -48(%rbp)         # 8-byte Spill
	jne	.LBB76_2
# %bb.1:
	movq	-48(%rbp), %rax         # 8-byte Reload
	addq	$48, %rsp
	popq	%rbp
	.cfi_def_cfa %rsp, 8
	retq
.LBB76_2:
	.cfi_def_cfa %rbp, 16
	callq	__stack_chk_fail@PLT
.Lfunc_end76:
	.size	_ZNK9__gnu_cxx17__normal_iteratorIPP10CollectionSt6vectorIS2_SaIS2_EEEplEl, .Lfunc_end76-_ZNK9__gnu_cxx17__normal_iteratorIPP10CollectionSt6vectorIS2_SaIS2_EEEplEl
	.cfi_endproc
                                        # -- End function
	.section	.text._ZN9__gnu_cxx17__normal_iteratorIPKP10CollectionSt6vectorIS2_SaIS2_EEEC2IPS2_EERKNS0_IT_NS_11__enable_ifIXsr3std10__are_sameISB_SA_EE7__valueES7_E6__typeEEE,"axG",@progbits,_ZN9__gnu_cxx17__normal_iteratorIPKP10CollectionSt6vectorIS2_SaIS2_EEEC2IPS2_EERKNS0_IT_NS_11__enable_ifIXsr3std10__are_sameISB_SA_EE7__valueES7_E6__typeEEE,comdat
	.weak	_ZN9__gnu_cxx17__normal_iteratorIPKP10CollectionSt6vectorIS2_SaIS2_EEEC2IPS2_EERKNS0_IT_NS_11__enable_ifIXsr3std10__are_sameISB_SA_EE7__valueES7_E6__typeEEE # -- Begin function _ZN9__gnu_cxx17__normal_iteratorIPKP10CollectionSt6vectorIS2_SaIS2_EEEC2IPS2_EERKNS0_IT_NS_11__enable_ifIXsr3std10__are_sameISB_SA_EE7__valueES7_E6__typeEEE
	.p2align	4, 0x90
	.type	_ZN9__gnu_cxx17__normal_iteratorIPKP10CollectionSt6vectorIS2_SaIS2_EEEC2IPS2_EERKNS0_IT_NS_11__enable_ifIXsr3std10__are_sameISB_SA_EE7__valueES7_E6__typeEEE,@function
_ZN9__gnu_cxx17__normal_iteratorIPKP10CollectionSt6vectorIS2_SaIS2_EEEC2IPS2_EERKNS0_IT_NS_11__enable_ifIXsr3std10__are_sameISB_SA_EE7__valueES7_E6__typeEEE: # @_ZN9__gnu_cxx17__normal_iteratorIPKP10CollectionSt6vectorIS2_SaIS2_EEEC2IPS2_EERKNS0_IT_NS_11__enable_ifIXsr3std10__are_sameISB_SA_EE7__valueES7_E6__typeEEE
	.cfi_startproc
# %bb.0:
	pushq	%rbp
	.cfi_def_cfa_offset 16
	.cfi_offset %rbp, -16
	movq	%rsp, %rbp
	.cfi_def_cfa_register %rbp
	subq	$32, %rsp
	movq	%rdi, -8(%rbp)
	movq	%rsi, -16(%rbp)
	movq	-8(%rbp), %rax
	movq	-16(%rbp), %rdi
	movq	%rax, -24(%rbp)         # 8-byte Spill
	callq	_ZNK9__gnu_cxx17__normal_iteratorIPP10CollectionSt6vectorIS2_SaIS2_EEE4baseEv
	movq	(%rax), %rax
	movq	-24(%rbp), %rcx         # 8-byte Reload
	movq	%rax, (%rcx)
	addq	$32, %rsp
	popq	%rbp
	.cfi_def_cfa %rsp, 8
	retq
.Lfunc_end77:
	.size	_ZN9__gnu_cxx17__normal_iteratorIPKP10CollectionSt6vectorIS2_SaIS2_EEEC2IPS2_EERKNS0_IT_NS_11__enable_ifIXsr3std10__are_sameISB_SA_EE7__valueES7_E6__typeEEE, .Lfunc_end77-_ZN9__gnu_cxx17__normal_iteratorIPKP10CollectionSt6vectorIS2_SaIS2_EEEC2IPS2_EERKNS0_IT_NS_11__enable_ifIXsr3std10__are_sameISB_SA_EE7__valueES7_E6__typeEEE
	.cfi_endproc
                                        # -- End function
	.text
	.globl	_ZN5Plane22TranslateInnerPositionERKN2sf7Vector2IiEE # -- Begin function _ZN5Plane22TranslateInnerPositionERKN2sf7Vector2IiEE
	.p2align	4, 0x90
	.type	_ZN5Plane22TranslateInnerPositionERKN2sf7Vector2IiEE,@function
_ZN5Plane22TranslateInnerPositionERKN2sf7Vector2IiEE: # @_ZN5Plane22TranslateInnerPositionERKN2sf7Vector2IiEE
	.cfi_startproc
# %bb.0:
	pushq	%rbp
	.cfi_def_cfa_offset 16
	.cfi_offset %rbp, -16
	movq	%rsp, %rbp
	.cfi_def_cfa_register %rbp
	subq	$16, %rsp
	movq	%rdi, -8(%rbp)
	movq	%rsi, -16(%rbp)
	movq	-8(%rbp), %rax
	movq	-16(%rbp), %rsi
	addq	$1096, %rax             # imm = 0x448
	movq	%rax, %rdi
	callq	_ZN2sfpLIiEERNS_7Vector2IT_EES4_RKS3_
	addq	$16, %rsp
	popq	%rbp
	.cfi_def_cfa %rsp, 8
	retq
.Lfunc_end78:
	.size	_ZN5Plane22TranslateInnerPositionERKN2sf7Vector2IiEE, .Lfunc_end78-_ZN5Plane22TranslateInnerPositionERKN2sf7Vector2IiEE
	.cfi_endproc
                                        # -- End function
	.section	.text._ZN2sfpLIiEERNS_7Vector2IT_EES4_RKS3_,"axG",@progbits,_ZN2sfpLIiEERNS_7Vector2IT_EES4_RKS3_,comdat
	.weak	_ZN2sfpLIiEERNS_7Vector2IT_EES4_RKS3_ # -- Begin function _ZN2sfpLIiEERNS_7Vector2IT_EES4_RKS3_
	.p2align	4, 0x90
	.type	_ZN2sfpLIiEERNS_7Vector2IT_EES4_RKS3_,@function
_ZN2sfpLIiEERNS_7Vector2IT_EES4_RKS3_:  # @_ZN2sfpLIiEERNS_7Vector2IT_EES4_RKS3_
	.cfi_startproc
# %bb.0:
	pushq	%rbp
	.cfi_def_cfa_offset 16
	.cfi_offset %rbp, -16
	movq	%rsp, %rbp
	.cfi_def_cfa_register %rbp
	movq	%rdi, -8(%rbp)
	movq	%rsi, -16(%rbp)
	movq	-16(%rbp), %rax
	movl	(%rax), %ecx
	movq	-8(%rbp), %rax
	addl	(%rax), %ecx
	movl	%ecx, (%rax)
	movq	-16(%rbp), %rax
	movl	4(%rax), %ecx
	movq	-8(%rbp), %rax
	addl	4(%rax), %ecx
	movl	%ecx, 4(%rax)
	movq	-8(%rbp), %rax
	popq	%rbp
	.cfi_def_cfa %rsp, 8
	retq
.Lfunc_end79:
	.size	_ZN2sfpLIiEERNS_7Vector2IT_EES4_RKS3_, .Lfunc_end79-_ZN2sfpLIiEERNS_7Vector2IT_EES4_RKS3_
	.cfi_endproc
                                        # -- End function
	.text
	.globl	_ZN5Plane16SetInnerPositionEN2sf7Vector2IiEE # -- Begin function _ZN5Plane16SetInnerPositionEN2sf7Vector2IiEE
	.p2align	4, 0x90
	.type	_ZN5Plane16SetInnerPositionEN2sf7Vector2IiEE,@function
_ZN5Plane16SetInnerPositionEN2sf7Vector2IiEE: # @_ZN5Plane16SetInnerPositionEN2sf7Vector2IiEE
	.cfi_startproc
# %bb.0:
	pushq	%rbp
	.cfi_def_cfa_offset 16
	.cfi_offset %rbp, -16
	movq	%rsp, %rbp
	.cfi_def_cfa_register %rbp
	subq	$32, %rsp
	movq	%fs:40, %rax
	movq	%rax, -8(%rbp)
	movq	%rsi, -16(%rbp)
	movq	%rdi, -24(%rbp)
	movq	-24(%rbp), %rax
	movq	-16(%rbp), %rcx
	movq	%rcx, 1096(%rax)
	movq	%fs:40, %rax
	movq	-8(%rbp), %rcx
	cmpq	%rcx, %rax
	jne	.LBB80_2
# %bb.1:
	addq	$32, %rsp
	popq	%rbp
	.cfi_def_cfa %rsp, 8
	retq
.LBB80_2:
	.cfi_def_cfa %rbp, 16
	callq	__stack_chk_fail@PLT
.Lfunc_end80:
	.size	_ZN5Plane16SetInnerPositionEN2sf7Vector2IiEE, .Lfunc_end80-_ZN5Plane16SetInnerPositionEN2sf7Vector2IiEE
	.cfi_endproc
                                        # -- End function
	.globl	_ZN5Plane16GetInnerPositionEv # -- Begin function _ZN5Plane16GetInnerPositionEv
	.p2align	4, 0x90
	.type	_ZN5Plane16GetInnerPositionEv,@function
_ZN5Plane16GetInnerPositionEv:          # @_ZN5Plane16GetInnerPositionEv
	.cfi_startproc
# %bb.0:
	pushq	%rbp
	.cfi_def_cfa_offset 16
	.cfi_offset %rbp, -16
	movq	%rsp, %rbp
	.cfi_def_cfa_register %rbp
	subq	$32, %rsp
	movq	%fs:40, %rax
	movq	%rax, -8(%rbp)
	movq	%rdi, -24(%rbp)
	movq	-24(%rbp), %rax
	movq	1096(%rax), %rax
	movq	%rax, -16(%rbp)
	movq	-16(%rbp), %rax
	movq	%fs:40, %rcx
	movq	-8(%rbp), %rdx
	cmpq	%rdx, %rcx
	movq	%rax, -32(%rbp)         # 8-byte Spill
	jne	.LBB81_2
# %bb.1:
	movq	-32(%rbp), %rax         # 8-byte Reload
	addq	$32, %rsp
	popq	%rbp
	.cfi_def_cfa %rsp, 8
	retq
.LBB81_2:
	.cfi_def_cfa %rbp, 16
	callq	__stack_chk_fail@PLT
.Lfunc_end81:
	.size	_ZN5Plane16GetInnerPositionEv, .Lfunc_end81-_ZN5Plane16GetInnerPositionEv
	.cfi_endproc
                                        # -- End function
	.globl	_ZN5Plane14DeleteContentsEb # -- Begin function _ZN5Plane14DeleteContentsEb
	.p2align	4, 0x90
	.type	_ZN5Plane14DeleteContentsEb,@function
_ZN5Plane14DeleteContentsEb:            # @_ZN5Plane14DeleteContentsEb
	.cfi_startproc
# %bb.0:
	pushq	%rbp
	.cfi_def_cfa_offset 16
	.cfi_offset %rbp, -16
	movq	%rsp, %rbp
	.cfi_def_cfa_register %rbp
	subq	$48, %rsp
                                        # kill: def $sil killed $sil killed $esi
	movq	%rdi, -8(%rbp)
	andb	$1, %sil
	movb	%sil, -9(%rbp)
	movq	-8(%rbp), %rax
	movq	$0, -24(%rbp)
	movq	%rax, -32(%rbp)         # 8-byte Spill
.LBB82_1:                               # =>This Inner Loop Header: Depth=1
	movq	-24(%rbp), %rax
	movq	-32(%rbp), %rcx         # 8-byte Reload
	addq	$1072, %rcx             # imm = 0x430
	movq	%rcx, %rdi
	movq	%rax, -40(%rbp)         # 8-byte Spill
	callq	_ZNKSt6vectorIP10CollectionSaIS1_EE4sizeEv
	movq	-40(%rbp), %rcx         # 8-byte Reload
	cmpq	%rax, %rcx
	jae	.LBB82_4
# %bb.2:                                #   in Loop: Header=BB82_1 Depth=1
	xorl	%eax, %eax
	movl	%eax, %esi
	movb	-9(%rbp), %cl
	andb	$1, %cl
	movq	-32(%rbp), %rdi         # 8-byte Reload
	movzbl	%cl, %edx
	callq	_ZN5Plane16DeleteCollectionEmb
# %bb.3:                                #   in Loop: Header=BB82_1 Depth=1
	movq	-24(%rbp), %rax
	addq	$1, %rax
	movq	%rax, -24(%rbp)
	jmp	.LBB82_1
.LBB82_4:
	addq	$48, %rsp
	popq	%rbp
	.cfi_def_cfa %rsp, 8
	retq
.Lfunc_end82:
	.size	_ZN5Plane14DeleteContentsEb, .Lfunc_end82-_ZN5Plane14DeleteContentsEb
	.cfi_endproc
                                        # -- End function
	.globl	_ZN5Plane17UpdateVAOPositionEm # -- Begin function _ZN5Plane17UpdateVAOPositionEm
	.p2align	4, 0x90
	.type	_ZN5Plane17UpdateVAOPositionEm,@function
_ZN5Plane17UpdateVAOPositionEm:         # @_ZN5Plane17UpdateVAOPositionEm
	.cfi_startproc
# %bb.0:
	pushq	%rbp
	.cfi_def_cfa_offset 16
	.cfi_offset %rbp, -16
	movq	%rsp, %rbp
	.cfi_def_cfa_register %rbp
	movq	%rdi, -8(%rbp)
	movq	%rsi, -16(%rbp)
	popq	%rbp
	.cfi_def_cfa %rsp, 8
	retq
.Lfunc_end83:
	.size	_ZN5Plane17UpdateVAOPositionEm, .Lfunc_end83-_ZN5Plane17UpdateVAOPositionEm
	.cfi_endproc
                                        # -- End function
	.globl	_ZN5Plane9UpdateVAOEm   # -- Begin function _ZN5Plane9UpdateVAOEm
	.p2align	4, 0x90
	.type	_ZN5Plane9UpdateVAOEm,@function
_ZN5Plane9UpdateVAOEm:                  # @_ZN5Plane9UpdateVAOEm
	.cfi_startproc
# %bb.0:
	pushq	%rbp
	.cfi_def_cfa_offset 16
	.cfi_offset %rbp, -16
	movq	%rsp, %rbp
	.cfi_def_cfa_register %rbp
	subq	$16, %rsp
	movq	%rdi, -8(%rbp)
	movq	%rsi, -16(%rbp)
	movq	-8(%rbp), %rdi
	movq	-16(%rbp), %rax
                                        # kill: def $ax killed $ax killed $rax
	movzwl	%ax, %esi
	callq	_ZN5Plane12UpdateBufferEt
	addq	$16, %rsp
	popq	%rbp
	.cfi_def_cfa %rsp, 8
	retq
.Lfunc_end84:
	.size	_ZN5Plane9UpdateVAOEm, .Lfunc_end84-_ZN5Plane9UpdateVAOEm
	.cfi_endproc
                                        # -- End function
	.section	.rodata.cst8,"aM",@progbits,8
	.p2align	3               # -- Begin function _ZN5Plane12UpdateBufferEt
.LCPI85_0:
	.quad	4890909195324358656     # double 9.2233720368547758E+18
	.section	.rodata.cst4,"aM",@progbits,4
	.p2align	2
.LCPI85_1:
	.long	1073741824              # float 2
	.text
	.globl	_ZN5Plane12UpdateBufferEt
	.p2align	4, 0x90
	.type	_ZN5Plane12UpdateBufferEt,@function
_ZN5Plane12UpdateBufferEt:              # @_ZN5Plane12UpdateBufferEt
.Lfunc_begin13:
	.cfi_startproc
	.cfi_personality 155, DW.ref.__gxx_personality_v0
	.cfi_lsda 27, .Lexception13
# %bb.0:
	pushq	%rbp
	.cfi_def_cfa_offset 16
	.cfi_offset %rbp, -16
	movq	%rsp, %rbp
	.cfi_def_cfa_register %rbp
	subq	$2848, %rsp             # imm = 0xB20
                                        # kill: def $si killed $si killed $esi
	movq	%fs:40, %rax
	movq	%rax, -8(%rbp)
	movq	%rdi, -1600(%rbp)
	movw	%si, -1602(%rbp)
	movq	-1600(%rbp), %rax
	movq	%rax, %rcx
	addq	$200, %rcx
	movzwl	-1602(%rbp), %edx
	movl	%edx, %esi
	movq	%rcx, %rdi
	movq	%rax, -1888(%rbp)       # 8-byte Spill
	callq	_ZNSt6vectorIS_IN2sf6VertexESaIS1_EESaIS3_EEixEm
	movq	%rax, %rdi
	callq	_ZNSt6vectorIN2sf6VertexESaIS1_EE5clearEv
	movq	-1888(%rbp), %rax       # 8-byte Reload
	addq	$1032, %rax             # imm = 0x408
	movzwl	-1602(%rbp), %edx
	movl	%edx, %esi
	movq	%rax, %rdi
	callq	_ZNSt6vectorIbSaIbEEixEm
	movq	%rax, -872(%rbp)
	movq	%rdx, -864(%rbp)
	leaq	-872(%rbp), %rdi
	callq	_ZNKSt14_Bit_referencecvbEv
	testb	$1, %al
	jne	.LBB85_1
	jmp	.LBB85_2
.LBB85_1:
	movq	-1888(%rbp), %rax       # 8-byte Reload
	addq	$200, %rax
	movzwl	-1602(%rbp), %ecx
	movl	%ecx, %esi
	movq	%rax, %rdi
	callq	_ZNSt6vectorIS_IN2sf6VertexESaIS1_EESaIS3_EEixEm
	movq	-1888(%rbp), %rdx       # 8-byte Reload
	addq	$1072, %rdx             # imm = 0x430
	movzwl	-1602(%rbp), %ecx
	movl	%ecx, %esi
	movq	%rdx, %rdi
	movq	%rax, -1896(%rbp)       # 8-byte Spill
	callq	_ZNSt6vectorIP10CollectionSaIS1_EEixEm
	movq	(%rax), %rax
	movq	%rax, %rdi
	callq	_ZN14ITransformable7getSizeEv@PLT
	movq	(%rax), %rax
	movq	%rax, -880(%rbp)
	movq	-880(%rbp), %rdx
	movq	-1888(%rbp), %rdi       # 8-byte Reload
	movq	-1896(%rbp), %rsi       # 8-byte Reload
	callq	_ZN5Plane19UpdateCollectionVAOEPSt6vectorIN2sf6VertexESaIS2_EENS1_7Vector2IjEE
.LBB85_2:
	leaq	-904(%rbp), %rdi
	callq	_ZNSt6vectorIN2sf11VertexArrayESaIS1_EEC2Ev
	leaq	-928(%rbp), %rdi
	callq	_ZNSt6vectorIPKS_IbSaIbEESaIS3_EEC2Ev
	leaq	-952(%rbp), %rdi
	callq	_ZNSt6vectorIPKN2sf5ImageESaIS3_EEC2Ev
	leaq	-976(%rbp), %rdi
	callq	_ZNSt6vectorIS_IN2sf6VertexESaIS1_EESaIS3_EEC2Ev
	leaq	-1000(%rbp), %rdi
	callq	_ZNSt6vectorItSaItEEC2Ev
	movq	$0, -1616(%rbp)
.LBB85_3:                               # =>This Loop Header: Depth=1
                                        #     Child Loop BB85_6 Depth 2
                                        #       Child Loop BB85_52 Depth 3
                                        #         Child Loop BB85_66 Depth 4
	movq	-1616(%rbp), %rax
	movq	-1888(%rbp), %rcx       # 8-byte Reload
	addq	$1072, %rcx             # imm = 0x430
	movzwl	-1602(%rbp), %edx
	movl	%edx, %esi
	movq	%rcx, %rdi
	movq	%rax, -1904(%rbp)       # 8-byte Spill
	callq	_ZNSt6vectorIP10CollectionSaIS1_EEixEm
	movq	(%rax), %rdi
.Ltmp164:
	callq	_ZN10Collection9GetStacksEv@PLT
.Ltmp165:
	movq	%rax, -1912(%rbp)       # 8-byte Spill
	jmp	.LBB85_4
.LBB85_4:                               #   in Loop: Header=BB85_3 Depth=1
	movq	-1912(%rbp), %rdi       # 8-byte Reload
	callq	_ZNKSt6vectorIP5StackSaIS1_EE4sizeEv
	movq	-1904(%rbp), %rcx       # 8-byte Reload
	cmpq	%rax, %rcx
	jae	.LBB85_83
# %bb.5:                                #   in Loop: Header=BB85_3 Depth=1
	movq	$0, -1640(%rbp)
.LBB85_6:                               #   Parent Loop BB85_3 Depth=1
                                        # =>  This Loop Header: Depth=2
                                        #       Child Loop BB85_52 Depth 3
                                        #         Child Loop BB85_66 Depth 4
	movq	-1640(%rbp), %rax
	movq	-1888(%rbp), %rcx       # 8-byte Reload
	addq	$1072, %rcx             # imm = 0x430
	movzwl	-1602(%rbp), %edx
	movl	%edx, %esi
	movq	%rcx, %rdi
	movq	%rax, -1920(%rbp)       # 8-byte Spill
	callq	_ZNSt6vectorIP10CollectionSaIS1_EEixEm
	movq	(%rax), %rdi
.Ltmp274:
	callq	_ZN10Collection9GetStacksEv@PLT
.Ltmp275:
	movq	%rax, -1928(%rbp)       # 8-byte Spill
	jmp	.LBB85_7
.LBB85_7:                               #   in Loop: Header=BB85_6 Depth=2
	movq	-1616(%rbp), %rsi
	movq	-1928(%rbp), %rdi       # 8-byte Reload
	callq	_ZNKSt6vectorIP5StackSaIS1_EEixEm
	movq	(%rax), %rdi
.Ltmp276:
	callq	_ZN5Stack9GetBlocksEv@PLT
.Ltmp277:
	movq	%rax, -1936(%rbp)       # 8-byte Spill
	jmp	.LBB85_8
.LBB85_8:                               #   in Loop: Header=BB85_6 Depth=2
	movq	-1936(%rbp), %rdi       # 8-byte Reload
	callq	_ZNKSt6vectorIP5BlockSaIS1_EE4sizeEv
	movq	-1920(%rbp), %rcx       # 8-byte Reload
	cmpq	%rax, %rcx
	jae	.LBB85_81
# %bb.9:                                #   in Loop: Header=BB85_6 Depth=2
	vxorps	%xmm0, %xmm0, %xmm0
	vmovdqa	%xmm0, -1024(%rbp)
	movq	$0, -1008(%rbp)
	leaq	-1024(%rbp), %rax
	movq	%rax, %rdi
	movq	%rax, -1944(%rbp)       # 8-byte Spill
	callq	_ZNSt6vectorIN2sf6VertexESaIS1_EEC2Ev
.Ltmp278:
	leaq	-976(%rbp), %rdi
	movq	-1944(%rbp), %rsi       # 8-byte Reload
	callq	_ZNSt6vectorIS_IN2sf6VertexESaIS1_EESaIS3_EE9push_backEOS3_
.Ltmp279:
	jmp	.LBB85_10
.LBB85_10:                              #   in Loop: Header=BB85_6 Depth=2
	leaq	-1024(%rbp), %rdi
	callq	_ZNSt6vectorIN2sf6VertexESaIS1_EED2Ev
	movw	$0, -1026(%rbp)
	movq	_ZN6Global11BlockBorderE@GOTPCREL(%rip), %rax
	movzbl	(%rax), %ecx
                                        # implicit-def: $xmm0
	vcvtsi2ss	%ecx, %xmm0, %xmm0
	vmovss	%xmm0, -1644(%rbp)
	movq	-1888(%rbp), %rax       # 8-byte Reload
	addq	$1072, %rax             # imm = 0x430
	movzwl	-1602(%rbp), %ecx
	movl	%ecx, %esi
	movq	%rax, %rdi
	callq	_ZNSt6vectorIP10CollectionSaIS1_EEixEm
	movq	(%rax), %rdi
.Ltmp281:
	callq	_ZN10Collection9GetStacksEv@PLT
.Ltmp282:
	movq	%rax, -1952(%rbp)       # 8-byte Spill
	jmp	.LBB85_11
.LBB85_11:                              #   in Loop: Header=BB85_6 Depth=2
	movq	-1616(%rbp), %rsi
	movq	-1952(%rbp), %rdi       # 8-byte Reload
	callq	_ZNKSt6vectorIP5StackSaIS1_EEixEm
	movq	(%rax), %rdi
.Ltmp283:
	callq	_ZNK2sf13Transformable11getPositionEv@PLT
.Ltmp284:
	movq	%rax, -1960(%rbp)       # 8-byte Spill
	jmp	.LBB85_12
.LBB85_12:                              #   in Loop: Header=BB85_6 Depth=2
	movq	-1640(%rbp), %rax
	movq	_ZN6Global11BlockHeightE@GOTPCREL(%rip), %rcx
	movzbl	(%rcx), %edx
	movl	%edx, %ecx
	imulq	%rcx, %rax
	movq	%rax, %rcx
	shrq	%rcx
	movl	%eax, %edx
	andl	$1, %edx
	movl	%edx, %esi
	orq	%rcx, %rsi
                                        # implicit-def: $xmm0
	vcvtsi2ss	%rsi, %xmm0, %xmm0
	vaddss	%xmm0, %xmm0, %xmm0
                                        # implicit-def: $xmm1
	vcvtsi2ss	%rax, %xmm1, %xmm1
	testq	%rax, %rax
	vmovss	%xmm1, -1964(%rbp)      # 4-byte Spill
	vmovss	%xmm0, -1968(%rbp)      # 4-byte Spill
	js	.LBB85_229
# %bb.228:                              #   in Loop: Header=BB85_6 Depth=2
	vmovss	-1964(%rbp), %xmm0      # 4-byte Reload
                                        # xmm0 = mem[0],zero,zero,zero
	vmovss	%xmm0, -1968(%rbp)      # 4-byte Spill
.LBB85_229:                             #   in Loop: Header=BB85_6 Depth=2
.Ltmp285:
	vmovss	-1968(%rbp), %xmm0      # 4-byte Reload
                                        # xmm0 = mem[0],zero,zero,zero
	leaq	-1048(%rbp), %rdi
	vxorps	%xmm1, %xmm1, %xmm1
	vmovss	%xmm0, -1972(%rbp)      # 4-byte Spill
	vmovaps	%xmm1, %xmm0
	vmovss	-1972(%rbp), %xmm1      # 4-byte Reload
                                        # xmm1 = mem[0],zero,zero,zero
	callq	_ZN2sf7Vector2IfEC2Eff
.Ltmp286:
	jmp	.LBB85_13
.LBB85_13:                              #   in Loop: Header=BB85_6 Depth=2
.Ltmp287:
	leaq	-1048(%rbp), %rsi
	movq	-1960(%rbp), %rdi       # 8-byte Reload
	callq	_ZN2sfplIfEENS_7Vector2IT_EERKS3_S5_
.Ltmp288:
	vmovaps	%xmm0, -2000(%rbp)      # 16-byte Spill
	jmp	.LBB85_14
.LBB85_14:                              #   in Loop: Header=BB85_6 Depth=2
	vmovaps	-2000(%rbp), %xmm0      # 16-byte Reload
	vmovlpd	%xmm0, -1040(%rbp)
	movq	-1888(%rbp), %rax       # 8-byte Reload
	addq	$1072, %rax             # imm = 0x430
	movzwl	-1602(%rbp), %ecx
	movl	%ecx, %esi
	movq	%rax, %rdi
	callq	_ZNSt6vectorIP10CollectionSaIS1_EEixEm
	movq	(%rax), %rdi
.Ltmp289:
	callq	_ZN10Collection9GetStacksEv@PLT
.Ltmp290:
	movq	%rax, -2008(%rbp)       # 8-byte Spill
	jmp	.LBB85_15
.LBB85_15:                              #   in Loop: Header=BB85_6 Depth=2
	movq	-1616(%rbp), %rsi
	movq	-2008(%rbp), %rdi       # 8-byte Reload
	callq	_ZNKSt6vectorIP5StackSaIS1_EEixEm
	movq	(%rax), %rdi
.Ltmp291:
	callq	_ZN5Stack9GetBlocksEv@PLT
.Ltmp292:
	movq	%rax, -2016(%rbp)       # 8-byte Spill
	jmp	.LBB85_16
.LBB85_16:                              #   in Loop: Header=BB85_6 Depth=2
	movq	-1640(%rbp), %rsi
	movq	-2016(%rbp), %rdi       # 8-byte Reload
	callq	_ZNKSt6vectorIP5BlockSaIS1_EEixEm
	movq	(%rax), %rdi
.Ltmp293:
	callq	_ZN5Block8GetWidthEv@PLT
.Ltmp294:
	movl	%eax, -2020(%rbp)       # 4-byte Spill
	jmp	.LBB85_17
.LBB85_17:                              #   in Loop: Header=BB85_6 Depth=2
	movl	-2020(%rbp), %eax       # 4-byte Reload
	movl	%eax, -1648(%rbp)
	movq	-1888(%rbp), %rcx       # 8-byte Reload
	addq	$1072, %rcx             # imm = 0x430
	movzwl	-1602(%rbp), %edx
	movl	%edx, %esi
	movq	%rcx, %rdi
	callq	_ZNSt6vectorIP10CollectionSaIS1_EEixEm
	movq	(%rax), %rdi
.Ltmp295:
	callq	_ZN10Collection9GetStacksEv@PLT
.Ltmp296:
	movq	%rax, -2032(%rbp)       # 8-byte Spill
	jmp	.LBB85_18
.LBB85_18:                              #   in Loop: Header=BB85_6 Depth=2
	movq	-1616(%rbp), %rsi
	movq	-2032(%rbp), %rdi       # 8-byte Reload
	callq	_ZNKSt6vectorIP5StackSaIS1_EEixEm
	movq	(%rax), %rdi
.Ltmp297:
	callq	_ZN5Stack9GetBlocksEv@PLT
.Ltmp298:
	movq	%rax, -2040(%rbp)       # 8-byte Spill
	jmp	.LBB85_19
.LBB85_19:                              #   in Loop: Header=BB85_6 Depth=2
	movq	-1640(%rbp), %rsi
	movq	-2040(%rbp), %rdi       # 8-byte Reload
	callq	_ZNKSt6vectorIP5BlockSaIS1_EEixEm
	movq	(%rax), %rdi
.Ltmp299:
	callq	_ZN5Block14GetModCategoryEv@PLT
.Ltmp300:
	movq	%rax, -2048(%rbp)       # 8-byte Spill
	jmp	.LBB85_20
.LBB85_20:                              #   in Loop: Header=BB85_6 Depth=2
	movq	-2048(%rbp), %rax       # 8-byte Reload
	movq	(%rax), %rcx
	movq	(%rcx), %rcx
.Ltmp301:
	movq	%rax, %rdi
	callq	*%rcx
.Ltmp302:
	movl	%eax, -2052(%rbp)       # 4-byte Spill
	jmp	.LBB85_21
.LBB85_21:                              #   in Loop: Header=BB85_6 Depth=2
	movl	-2052(%rbp), %eax       # 4-byte Reload
	movl	%eax, -1056(%rbp)
	leaq	-976(%rbp), %rdi
	callq	_ZNSt6vectorIS_IN2sf6VertexESaIS1_EESaIS3_EE4backEv
.Ltmp303:
	leaq	-1096(%rbp), %rdi
	vxorps	%xmm0, %xmm0, %xmm0
	vmovss	%xmm0, -2056(%rbp)      # 4-byte Spill
	vmovss	-2056(%rbp), %xmm1      # 4-byte Reload
                                        # xmm1 = mem[0],zero,zero,zero
	movq	%rax, -2064(%rbp)       # 8-byte Spill
	callq	_ZN2sf7Vector2IfEC2Eff
.Ltmp304:
	jmp	.LBB85_22
.LBB85_22:                              #   in Loop: Header=BB85_6 Depth=2
.Ltmp305:
	leaq	-1040(%rbp), %rdi
	leaq	-1096(%rbp), %rsi
	callq	_ZN2sfplIfEENS_7Vector2IT_EERKS3_S5_
.Ltmp306:
	vmovaps	%xmm0, -2080(%rbp)      # 16-byte Spill
	jmp	.LBB85_23
.LBB85_23:                              #   in Loop: Header=BB85_6 Depth=2
	vmovaps	-2080(%rbp), %xmm0      # 16-byte Reload
	vmovlpd	%xmm0, -1088(%rbp)
.Ltmp307:
	leaq	-1104(%rbp), %rdi
	vxorps	%xmm1, %xmm1, %xmm1
	vmovaps	%xmm1, %xmm0
	callq	_ZN2sf7Vector2IfEC2Eff
.Ltmp308:
	jmp	.LBB85_24
.LBB85_24:                              #   in Loop: Header=BB85_6 Depth=2
.Ltmp309:
	leaq	-1080(%rbp), %rdi
	leaq	-1088(%rbp), %rsi
	leaq	-1056(%rbp), %rdx
	leaq	-1104(%rbp), %rcx
	callq	_ZN2sf6VertexC1ERKNS_7Vector2IfEERKNS_5ColorES4_@PLT
.Ltmp310:
	jmp	.LBB85_25
.LBB85_25:                              #   in Loop: Header=BB85_6 Depth=2
.Ltmp311:
	leaq	-1080(%rbp), %rsi
	movq	-2064(%rbp), %rdi       # 8-byte Reload
	callq	_ZNSt6vectorIN2sf6VertexESaIS1_EE9push_backEOS1_
.Ltmp312:
	jmp	.LBB85_26
.LBB85_26:                              #   in Loop: Header=BB85_6 Depth=2
	leaq	-976(%rbp), %rdi
	callq	_ZNSt6vectorIS_IN2sf6VertexESaIS1_EESaIS3_EE4backEv
	movl	-1648(%rbp), %ecx
	movl	%ecx, %edx
                                        # implicit-def: $xmm0
	vcvtsi2ss	%rdx, %xmm0, %xmm0
.Ltmp313:
	leaq	-1144(%rbp), %rdi
	vxorps	%xmm1, %xmm1, %xmm1
	movq	%rax, -2088(%rbp)       # 8-byte Spill
	callq	_ZN2sf7Vector2IfEC2Eff
.Ltmp314:
	jmp	.LBB85_27
.LBB85_27:                              #   in Loop: Header=BB85_6 Depth=2
.Ltmp315:
	leaq	-1040(%rbp), %rdi
	leaq	-1144(%rbp), %rsi
	callq	_ZN2sfplIfEENS_7Vector2IT_EERKS3_S5_
.Ltmp316:
	vmovaps	%xmm0, -2112(%rbp)      # 16-byte Spill
	jmp	.LBB85_28
.LBB85_28:                              #   in Loop: Header=BB85_6 Depth=2
	vmovaps	-2112(%rbp), %xmm0      # 16-byte Reload
	vmovlpd	%xmm0, -1136(%rbp)
.Ltmp317:
	leaq	-1152(%rbp), %rdi
	vxorps	%xmm1, %xmm1, %xmm1
	vmovaps	%xmm1, %xmm0
	callq	_ZN2sf7Vector2IfEC2Eff
.Ltmp318:
	jmp	.LBB85_29
.LBB85_29:                              #   in Loop: Header=BB85_6 Depth=2
.Ltmp319:
	leaq	-1128(%rbp), %rdi
	leaq	-1136(%rbp), %rsi
	leaq	-1056(%rbp), %rdx
	leaq	-1152(%rbp), %rcx
	callq	_ZN2sf6VertexC1ERKNS_7Vector2IfEERKNS_5ColorES4_@PLT
.Ltmp320:
	jmp	.LBB85_30
.LBB85_30:                              #   in Loop: Header=BB85_6 Depth=2
.Ltmp321:
	leaq	-1128(%rbp), %rsi
	movq	-2088(%rbp), %rdi       # 8-byte Reload
	callq	_ZNSt6vectorIN2sf6VertexESaIS1_EE9push_backEOS1_
.Ltmp322:
	jmp	.LBB85_31
.LBB85_31:                              #   in Loop: Header=BB85_6 Depth=2
	leaq	-976(%rbp), %rdi
	callq	_ZNSt6vectorIS_IN2sf6VertexESaIS1_EESaIS3_EE4backEv
	movl	-1648(%rbp), %ecx
	movl	%ecx, %edx
                                        # implicit-def: $xmm0
	vcvtsi2ss	%rdx, %xmm0, %xmm0
	movq	_ZN6Global11BlockHeightE@GOTPCREL(%rip), %rdx
	movzbl	(%rdx), %ecx
                                        # implicit-def: $xmm1
	vcvtsi2ss	%ecx, %xmm1, %xmm1
.Ltmp323:
	leaq	-1192(%rbp), %rdi
	movq	%rax, -2120(%rbp)       # 8-byte Spill
	callq	_ZN2sf7Vector2IfEC2Eff
.Ltmp324:
	jmp	.LBB85_32
.LBB85_32:                              #   in Loop: Header=BB85_6 Depth=2
.Ltmp325:
	leaq	-1040(%rbp), %rdi
	leaq	-1192(%rbp), %rsi
	callq	_ZN2sfplIfEENS_7Vector2IT_EERKS3_S5_
.Ltmp326:
	vmovaps	%xmm0, -2144(%rbp)      # 16-byte Spill
	jmp	.LBB85_33
.LBB85_33:                              #   in Loop: Header=BB85_6 Depth=2
	vmovaps	-2144(%rbp), %xmm0      # 16-byte Reload
	vmovlpd	%xmm0, -1184(%rbp)
.Ltmp327:
	leaq	-1200(%rbp), %rdi
	vxorps	%xmm1, %xmm1, %xmm1
	vmovaps	%xmm1, %xmm0
	callq	_ZN2sf7Vector2IfEC2Eff
.Ltmp328:
	jmp	.LBB85_34
.LBB85_34:                              #   in Loop: Header=BB85_6 Depth=2
.Ltmp329:
	leaq	-1176(%rbp), %rdi
	leaq	-1184(%rbp), %rsi
	leaq	-1056(%rbp), %rdx
	leaq	-1200(%rbp), %rcx
	callq	_ZN2sf6VertexC1ERKNS_7Vector2IfEERKNS_5ColorES4_@PLT
.Ltmp330:
	jmp	.LBB85_35
.LBB85_35:                              #   in Loop: Header=BB85_6 Depth=2
.Ltmp331:
	leaq	-1176(%rbp), %rsi
	movq	-2120(%rbp), %rdi       # 8-byte Reload
	callq	_ZNSt6vectorIN2sf6VertexESaIS1_EE9push_backEOS1_
.Ltmp332:
	jmp	.LBB85_36
.LBB85_36:                              #   in Loop: Header=BB85_6 Depth=2
	leaq	-976(%rbp), %rdi
	callq	_ZNSt6vectorIS_IN2sf6VertexESaIS1_EESaIS3_EE4backEv
.Ltmp333:
	leaq	-1240(%rbp), %rdi
	vxorps	%xmm0, %xmm0, %xmm0
	vmovss	%xmm0, -2148(%rbp)      # 4-byte Spill
	vmovss	-2148(%rbp), %xmm1      # 4-byte Reload
                                        # xmm1 = mem[0],zero,zero,zero
	movq	%rax, -2160(%rbp)       # 8-byte Spill
	callq	_ZN2sf7Vector2IfEC2Eff
.Ltmp334:
	jmp	.LBB85_37
.LBB85_37:                              #   in Loop: Header=BB85_6 Depth=2
.Ltmp335:
	leaq	-1040(%rbp), %rdi
	leaq	-1240(%rbp), %rsi
	callq	_ZN2sfplIfEENS_7Vector2IT_EERKS3_S5_
.Ltmp336:
	vmovaps	%xmm0, -2176(%rbp)      # 16-byte Spill
	jmp	.LBB85_38
.LBB85_38:                              #   in Loop: Header=BB85_6 Depth=2
	vmovaps	-2176(%rbp), %xmm0      # 16-byte Reload
	vmovlpd	%xmm0, -1232(%rbp)
.Ltmp337:
	leaq	-1248(%rbp), %rdi
	vxorps	%xmm1, %xmm1, %xmm1
	vmovaps	%xmm1, %xmm0
	callq	_ZN2sf7Vector2IfEC2Eff
.Ltmp338:
	jmp	.LBB85_39
.LBB85_39:                              #   in Loop: Header=BB85_6 Depth=2
.Ltmp339:
	leaq	-1224(%rbp), %rdi
	leaq	-1232(%rbp), %rsi
	leaq	-1056(%rbp), %rdx
	leaq	-1248(%rbp), %rcx
	callq	_ZN2sf6VertexC1ERKNS_7Vector2IfEERKNS_5ColorES4_@PLT
.Ltmp340:
	jmp	.LBB85_40
.LBB85_40:                              #   in Loop: Header=BB85_6 Depth=2
.Ltmp341:
	leaq	-1224(%rbp), %rsi
	movq	-2160(%rbp), %rdi       # 8-byte Reload
	callq	_ZNSt6vectorIN2sf6VertexESaIS1_EE9push_backEOS1_
.Ltmp342:
	jmp	.LBB85_41
.LBB85_41:                              #   in Loop: Header=BB85_6 Depth=2
	leaq	-976(%rbp), %rdi
	callq	_ZNSt6vectorIS_IN2sf6VertexESaIS1_EESaIS3_EE4backEv
	movl	-1648(%rbp), %ecx
	movl	%ecx, %edx
                                        # implicit-def: $xmm0
	vcvtsi2ss	%rdx, %xmm0, %xmm0
	movq	_ZN6Global11BlockHeightE@GOTPCREL(%rip), %rdx
	movzbl	(%rdx), %ecx
                                        # implicit-def: $xmm1
	vcvtsi2ss	%ecx, %xmm1, %xmm1
.Ltmp343:
	leaq	-1288(%rbp), %rdi
	movq	%rax, -2184(%rbp)       # 8-byte Spill
	callq	_ZN2sf7Vector2IfEC2Eff
.Ltmp344:
	jmp	.LBB85_42
.LBB85_42:                              #   in Loop: Header=BB85_6 Depth=2
.Ltmp345:
	leaq	-1040(%rbp), %rdi
	leaq	-1288(%rbp), %rsi
	callq	_ZN2sfplIfEENS_7Vector2IT_EERKS3_S5_
.Ltmp346:
	vmovaps	%xmm0, -2208(%rbp)      # 16-byte Spill
	jmp	.LBB85_43
.LBB85_43:                              #   in Loop: Header=BB85_6 Depth=2
	vmovaps	-2208(%rbp), %xmm0      # 16-byte Reload
	vmovlpd	%xmm0, -1280(%rbp)
.Ltmp347:
	leaq	-1296(%rbp), %rdi
	vxorps	%xmm1, %xmm1, %xmm1
	vmovaps	%xmm1, %xmm0
	callq	_ZN2sf7Vector2IfEC2Eff
.Ltmp348:
	jmp	.LBB85_44
.LBB85_44:                              #   in Loop: Header=BB85_6 Depth=2
.Ltmp349:
	leaq	-1272(%rbp), %rdi
	leaq	-1280(%rbp), %rsi
	leaq	-1056(%rbp), %rdx
	leaq	-1296(%rbp), %rcx
	callq	_ZN2sf6VertexC1ERKNS_7Vector2IfEERKNS_5ColorES4_@PLT
.Ltmp350:
	jmp	.LBB85_45
.LBB85_45:                              #   in Loop: Header=BB85_6 Depth=2
.Ltmp351:
	leaq	-1272(%rbp), %rsi
	movq	-2184(%rbp), %rdi       # 8-byte Reload
	callq	_ZNSt6vectorIN2sf6VertexESaIS1_EE9push_backEOS1_
.Ltmp352:
	jmp	.LBB85_46
.LBB85_46:                              #   in Loop: Header=BB85_6 Depth=2
	leaq	-976(%rbp), %rdi
	callq	_ZNSt6vectorIS_IN2sf6VertexESaIS1_EESaIS3_EE4backEv
	movq	_ZN6Global11BlockHeightE@GOTPCREL(%rip), %rcx
	movzbl	(%rcx), %edx
                                        # implicit-def: $xmm0
	vcvtsi2ss	%edx, %xmm0, %xmm1
.Ltmp353:
	leaq	-1336(%rbp), %rdi
	vxorps	%xmm0, %xmm0, %xmm0
	movq	%rax, -2216(%rbp)       # 8-byte Spill
	callq	_ZN2sf7Vector2IfEC2Eff
.Ltmp354:
	jmp	.LBB85_47
.LBB85_47:                              #   in Loop: Header=BB85_6 Depth=2
.Ltmp355:
	leaq	-1040(%rbp), %rdi
	leaq	-1336(%rbp), %rsi
	callq	_ZN2sfplIfEENS_7Vector2IT_EERKS3_S5_
.Ltmp356:
	vmovaps	%xmm0, -2240(%rbp)      # 16-byte Spill
	jmp	.LBB85_48
.LBB85_48:                              #   in Loop: Header=BB85_6 Depth=2
	vmovaps	-2240(%rbp), %xmm0      # 16-byte Reload
	vmovlpd	%xmm0, -1328(%rbp)
.Ltmp357:
	leaq	-1344(%rbp), %rdi
	vxorps	%xmm1, %xmm1, %xmm1
	vmovaps	%xmm1, %xmm0
	callq	_ZN2sf7Vector2IfEC2Eff
.Ltmp358:
	jmp	.LBB85_49
.LBB85_49:                              #   in Loop: Header=BB85_6 Depth=2
.Ltmp359:
	leaq	-1320(%rbp), %rdi
	leaq	-1328(%rbp), %rsi
	leaq	-1056(%rbp), %rdx
	leaq	-1344(%rbp), %rcx
	callq	_ZN2sf6VertexC1ERKNS_7Vector2IfEERKNS_5ColorES4_@PLT
.Ltmp360:
	jmp	.LBB85_50
.LBB85_50:                              #   in Loop: Header=BB85_6 Depth=2
.Ltmp361:
	leaq	-1320(%rbp), %rsi
	movq	-2216(%rbp), %rdi       # 8-byte Reload
	callq	_ZNSt6vectorIN2sf6VertexESaIS1_EE9push_backEOS1_
.Ltmp362:
	jmp	.LBB85_51
.LBB85_51:                              #   in Loop: Header=BB85_6 Depth=2
	movq	$0, -1656(%rbp)
.LBB85_52:                              #   Parent Loop BB85_3 Depth=1
                                        #     Parent Loop BB85_6 Depth=2
                                        # =>    This Loop Header: Depth=3
                                        #         Child Loop BB85_66 Depth 4
	movq	-1656(%rbp), %rax
	movq	-1888(%rbp), %rcx       # 8-byte Reload
	addq	$1072, %rcx             # imm = 0x430
	movzwl	-1602(%rbp), %edx
	movl	%edx, %esi
	movq	%rcx, %rdi
	movq	%rax, -2248(%rbp)       # 8-byte Spill
	callq	_ZNSt6vectorIP10CollectionSaIS1_EEixEm
	movq	(%rax), %rdi
.Ltmp363:
	callq	_ZN10Collection9GetStacksEv@PLT
.Ltmp364:
	movq	%rax, -2256(%rbp)       # 8-byte Spill
	jmp	.LBB85_53
.LBB85_53:                              #   in Loop: Header=BB85_52 Depth=3
	movq	-1616(%rbp), %rsi
	movq	-2256(%rbp), %rdi       # 8-byte Reload
	callq	_ZNKSt6vectorIP5StackSaIS1_EEixEm
	movq	(%rax), %rdi
.Ltmp365:
	callq	_ZN5Stack9GetBlocksEv@PLT
.Ltmp366:
	movq	%rax, -2264(%rbp)       # 8-byte Spill
	jmp	.LBB85_54
.LBB85_54:                              #   in Loop: Header=BB85_52 Depth=3
	movq	-1640(%rbp), %rsi
	movq	-2264(%rbp), %rdi       # 8-byte Reload
	callq	_ZNKSt6vectorIP5BlockSaIS1_EEixEm
	movq	(%rax), %rdi
.Ltmp367:
	callq	_ZN5Block12GetArgumentsEv@PLT
.Ltmp368:
	movq	%rax, -2272(%rbp)       # 8-byte Spill
	jmp	.LBB85_55
.LBB85_55:                              #   in Loop: Header=BB85_52 Depth=3
	movq	-2272(%rbp), %rdi       # 8-byte Reload
	callq	_ZNKSt6vectorIP8ArgumentSaIS1_EE4sizeEv
	movq	-2248(%rbp), %rcx       # 8-byte Reload
	cmpq	%rax, %rcx
	jae	.LBB85_78
# %bb.56:                               #   in Loop: Header=BB85_52 Depth=3
	movq	-1888(%rbp), %rax       # 8-byte Reload
	addq	$1072, %rax             # imm = 0x430
	movzwl	-1602(%rbp), %ecx
	movl	%ecx, %esi
	movq	%rax, %rdi
	callq	_ZNSt6vectorIP10CollectionSaIS1_EEixEm
	movq	(%rax), %rdi
.Ltmp371:
	callq	_ZN10Collection9GetStacksEv@PLT
.Ltmp372:
	movq	%rax, -2280(%rbp)       # 8-byte Spill
	jmp	.LBB85_57
.LBB85_57:                              #   in Loop: Header=BB85_52 Depth=3
	movq	-1616(%rbp), %rsi
	movq	-2280(%rbp), %rdi       # 8-byte Reload
	callq	_ZNKSt6vectorIP5StackSaIS1_EEixEm
	movq	(%rax), %rdi
.Ltmp373:
	callq	_ZN5Stack9GetBlocksEv@PLT
.Ltmp374:
	movq	%rax, -2288(%rbp)       # 8-byte Spill
	jmp	.LBB85_58
.LBB85_58:                              #   in Loop: Header=BB85_52 Depth=3
	movq	-1640(%rbp), %rsi
	movq	-2288(%rbp), %rdi       # 8-byte Reload
	callq	_ZNKSt6vectorIP5BlockSaIS1_EEixEm
	movq	(%rax), %rdi
.Ltmp375:
	callq	_ZN5Block12GetArgumentsEv@PLT
.Ltmp376:
	movq	%rax, -2296(%rbp)       # 8-byte Spill
	jmp	.LBB85_59
.LBB85_59:                              #   in Loop: Header=BB85_52 Depth=3
	movq	-1656(%rbp), %rsi
	movq	-2296(%rbp), %rdi       # 8-byte Reload
	callq	_ZNKSt6vectorIP8ArgumentSaIS1_EEixEm
	movq	(%rax), %rax
	movq	%rax, -1664(%rbp)
	movw	-1026(%rbp), %cx
	incw	%cx
	movw	%cx, -1026(%rbp)
	movq	-1664(%rbp), %rdi
.Ltmp377:
	callq	_ZN8Argument14GetVertexArrayEv@PLT
.Ltmp378:
	movq	%rax, -2304(%rbp)       # 8-byte Spill
	jmp	.LBB85_60
.LBB85_60:                              #   in Loop: Header=BB85_52 Depth=3
.Ltmp379:
	leaq	-904(%rbp), %rdi
	movq	-2304(%rbp), %rsi       # 8-byte Reload
	callq	_ZNSt6vectorIN2sf11VertexArrayESaIS1_EE9push_backERKS1_
.Ltmp380:
	jmp	.LBB85_61
.LBB85_61:                              #   in Loop: Header=BB85_52 Depth=3
	movq	-1664(%rbp), %rdi
.Ltmp381:
	callq	_ZN8Argument20GetVertexArrayCoordsEv@PLT
.Ltmp382:
	movq	%rax, -2312(%rbp)       # 8-byte Spill
	jmp	.LBB85_62
.LBB85_62:                              #   in Loop: Header=BB85_52 Depth=3
	movq	-2312(%rbp), %rax       # 8-byte Reload
	movq	%rax, -1352(%rbp)
.Ltmp383:
	leaq	-928(%rbp), %rdi
	leaq	-1352(%rbp), %rsi
	callq	_ZNSt6vectorIPKS_IbSaIbEESaIS3_EE9push_backEOS3_
.Ltmp384:
	jmp	.LBB85_63
.LBB85_63:                              #   in Loop: Header=BB85_52 Depth=3
	movq	-1664(%rbp), %rdi
.Ltmp385:
	callq	_ZN8Argument21GetVertexArrayTextureEv@PLT
.Ltmp386:
	movq	%rax, -2320(%rbp)       # 8-byte Spill
	jmp	.LBB85_64
.LBB85_64:                              #   in Loop: Header=BB85_52 Depth=3
	movq	-2320(%rbp), %rax       # 8-byte Reload
	movq	%rax, -1360(%rbp)
.Ltmp387:
	leaq	-952(%rbp), %rdi
	leaq	-1360(%rbp), %rsi
	callq	_ZNSt6vectorIPKN2sf5ImageESaIS3_EE9push_backEOS3_
.Ltmp388:
	jmp	.LBB85_65
.LBB85_65:                              #   in Loop: Header=BB85_52 Depth=3
	movq	$0, -1672(%rbp)
.LBB85_66:                              #   Parent Loop BB85_3 Depth=1
                                        #     Parent Loop BB85_6 Depth=2
                                        #       Parent Loop BB85_52 Depth=3
                                        # =>      This Inner Loop Header: Depth=4
	movq	-1672(%rbp), %rax
	leaq	-904(%rbp), %rdi
	movq	%rax, -2328(%rbp)       # 8-byte Spill
	callq	_ZNSt6vectorIN2sf11VertexArrayESaIS1_EE4backEv
.Ltmp389:
	movq	%rax, %rdi
	callq	_ZNK2sf11VertexArray14getVertexCountEv@PLT
.Ltmp390:
	movq	%rax, -2336(%rbp)       # 8-byte Spill
	jmp	.LBB85_67
.LBB85_67:                              #   in Loop: Header=BB85_66 Depth=4
	movq	-2328(%rbp), %rax       # 8-byte Reload
	movq	-2336(%rbp), %rcx       # 8-byte Reload
	cmpq	%rcx, %rax
	jae	.LBB85_75
# %bb.68:                               #   in Loop: Header=BB85_66 Depth=4
	vmovss	-1644(%rbp), %xmm0      # xmm0 = mem[0],zero,zero,zero
	vmovss	-1040(%rbp), %xmm1      # xmm1 = mem[0],zero,zero,zero
	vmovss	-1036(%rbp), %xmm2      # xmm2 = mem[0],zero,zero,zero
	vaddss	%xmm1, %xmm0, %xmm0
	movq	_ZN6Global11BlockBorderE@GOTPCREL(%rip), %rax
	movzbl	(%rax), %ecx
                                        # implicit-def: $xmm1
	vcvtsi2ss	%ecx, %xmm1, %xmm1
	vmovss	.LCPI85_1(%rip), %xmm3  # xmm3 = mem[0],zero,zero,zero
	vdivss	%xmm3, %xmm1, %xmm1
	vaddss	%xmm1, %xmm2, %xmm1
.Ltmp393:
	leaq	-1368(%rbp), %rdi
	callq	_ZN2sf7Vector2IfEC2Eff
.Ltmp394:
	jmp	.LBB85_69
.LBB85_69:                              #   in Loop: Header=BB85_66 Depth=4
	leaq	-904(%rbp), %rdi
	callq	_ZNSt6vectorIN2sf11VertexArrayESaIS1_EE4backEv
	movq	-1672(%rbp), %rsi
.Ltmp395:
	movq	%rax, %rdi
	callq	_ZN2sf11VertexArrayixEm@PLT
.Ltmp396:
	movq	%rax, -2344(%rbp)       # 8-byte Spill
	jmp	.LBB85_70
.LBB85_70:                              #   in Loop: Header=BB85_66 Depth=4
.Ltmp397:
	leaq	-1368(%rbp), %rsi
	movq	-2344(%rbp), %rdi       # 8-byte Reload
	callq	_ZN2sfpLIfEERNS_7Vector2IT_EES4_RKS3_
.Ltmp398:
	jmp	.LBB85_71
.LBB85_71:                              #   in Loop: Header=BB85_66 Depth=4
	jmp	.LBB85_72
.LBB85_72:                              #   in Loop: Header=BB85_66 Depth=4
	movq	-1672(%rbp), %rax
	addq	$1, %rax
	movq	%rax, -1672(%rbp)
	jmp	.LBB85_66
.LBB85_73:
.Ltmp399:
                                        # kill: def $edx killed $edx killed $rdx
	movq	%rax, -1624(%rbp)
	movl	%edx, -1628(%rbp)
	jmp	.LBB85_225
.LBB85_74:
.Ltmp280:
                                        # kill: def $edx killed $edx killed $rdx
	movq	%rax, -1624(%rbp)
	movl	%edx, -1628(%rbp)
	leaq	-1024(%rbp), %rdi
	callq	_ZNSt6vectorIN2sf6VertexESaIS1_EED2Ev
	jmp	.LBB85_225
.LBB85_75:                              #   in Loop: Header=BB85_52 Depth=3
	movq	-1664(%rbp), %rax
	movq	(%rax), %rcx
	movq	24(%rcx), %rcx
.Ltmp391:
	movq	%rax, %rdi
	callq	*%rcx
.Ltmp392:
	movl	%eax, -2348(%rbp)       # 4-byte Spill
	jmp	.LBB85_76
.LBB85_76:                              #   in Loop: Header=BB85_52 Depth=3
	movl	-2348(%rbp), %eax       # 4-byte Reload
	movl	%eax, %ecx
	movl	%ecx, %edx
                                        # implicit-def: $xmm0
	vcvtsi2ss	%rdx, %xmm0, %xmm0
	vmovss	-1644(%rbp), %xmm1      # xmm1 = mem[0],zero,zero,zero
	vaddss	%xmm0, %xmm1, %xmm0
	vmovss	%xmm0, -1644(%rbp)
	movq	_ZN6Global11BlockBorderE@GOTPCREL(%rip), %rdx
	movzbl	(%rdx), %ecx
                                        # implicit-def: $xmm0
	vcvtsi2ss	%ecx, %xmm0, %xmm0
	vaddss	-1644(%rbp), %xmm0, %xmm0
	vmovss	%xmm0, -1644(%rbp)
# %bb.77:                               #   in Loop: Header=BB85_52 Depth=3
	movq	-1656(%rbp), %rax
	addq	$1, %rax
	movq	%rax, -1656(%rbp)
	jmp	.LBB85_52
.LBB85_78:                              #   in Loop: Header=BB85_6 Depth=2
.Ltmp369:
	leaq	-1000(%rbp), %rdi
	leaq	-1026(%rbp), %rsi
	callq	_ZNSt6vectorItSaItEE9push_backERKt
.Ltmp370:
	jmp	.LBB85_79
.LBB85_79:                              #   in Loop: Header=BB85_6 Depth=2
	jmp	.LBB85_80
.LBB85_80:                              #   in Loop: Header=BB85_6 Depth=2
	movq	-1640(%rbp), %rax
	addq	$1, %rax
	movq	%rax, -1640(%rbp)
	jmp	.LBB85_6
.LBB85_81:                              #   in Loop: Header=BB85_3 Depth=1
	jmp	.LBB85_82
.LBB85_82:                              #   in Loop: Header=BB85_3 Depth=1
	movq	-1616(%rbp), %rax
	addq	$1, %rax
	movq	%rax, -1616(%rbp)
	jmp	.LBB85_3
.LBB85_83:
	movl	$1, -1676(%rbp)
	movl	$0, -1680(%rbp)
	movq	$0, -1688(%rbp)
.LBB85_84:                              # =>This Loop Header: Depth=1
                                        #     Child Loop BB85_92 Depth 2
	movq	-1688(%rbp), %rax
	leaq	-952(%rbp), %rdi
	movq	%rax, -2360(%rbp)       # 8-byte Spill
	callq	_ZNKSt6vectorIPKN2sf5ImageESaIS3_EE4sizeEv
	movq	-2360(%rbp), %rcx       # 8-byte Reload
	cmpq	%rax, %rcx
	jae	.LBB85_103
# %bb.85:                               #   in Loop: Header=BB85_84 Depth=1
	leaq	-952(%rbp), %rdi
	callq	_ZNKSt6vectorIPKN2sf5ImageESaIS3_EE4sizeEv
	subq	-1688(%rbp), %rax
	subq	$1, %rax
	movq	%rax, -1696(%rbp)
	movq	-1696(%rbp), %rsi
	leaq	-952(%rbp), %rdi
	callq	_ZNSt6vectorIPKN2sf5ImageESaIS3_EEixEm
	cmpq	$0, (%rax)
	jne	.LBB85_87
# %bb.86:                               #   in Loop: Header=BB85_84 Depth=1
	jmp	.LBB85_102
.LBB85_87:                              #   in Loop: Header=BB85_84 Depth=1
	movq	-1696(%rbp), %rsi
	leaq	-952(%rbp), %rdi
	callq	_ZNSt6vectorIPKN2sf5ImageESaIS3_EEixEm
	movq	(%rax), %rdi
.Ltmp262:
	callq	_ZNK2sf5Image7getSizeEv@PLT
.Ltmp263:
	movq	%rax, -2368(%rbp)       # 8-byte Spill
	jmp	.LBB85_88
.LBB85_88:                              #   in Loop: Header=BB85_84 Depth=1
	movq	-2368(%rbp), %rax       # 8-byte Reload
	movq	%rax, -1704(%rbp)
	movl	-1704(%rbp), %ecx
	cmpl	-1680(%rbp), %ecx
	jbe	.LBB85_91
# %bb.89:                               #   in Loop: Header=BB85_84 Depth=1
	movq	-1696(%rbp), %rsi
	leaq	-952(%rbp), %rdi
	callq	_ZNSt6vectorIPKN2sf5ImageESaIS3_EEixEm
	movq	(%rax), %rdi
.Ltmp264:
	callq	_ZNK2sf5Image7getSizeEv@PLT
.Ltmp265:
	movq	%rax, -2376(%rbp)       # 8-byte Spill
	jmp	.LBB85_90
.LBB85_90:                              #   in Loop: Header=BB85_84 Depth=1
	movq	-2376(%rbp), %rax       # 8-byte Reload
	movq	%rax, -1712(%rbp)
	movl	-1712(%rbp), %ecx
	movl	%ecx, -1680(%rbp)
.LBB85_91:                              #   in Loop: Header=BB85_84 Depth=1
	movq	$0, -1720(%rbp)
.LBB85_92:                              #   Parent Loop BB85_84 Depth=1
                                        # =>  This Inner Loop Header: Depth=2
	movq	-1720(%rbp), %rax
	movq	-1696(%rbp), %rsi
	leaq	-904(%rbp), %rdi
	movq	%rax, -2384(%rbp)       # 8-byte Spill
	callq	_ZNSt6vectorIN2sf11VertexArrayESaIS1_EEixEm
.Ltmp266:
	movq	%rax, %rdi
	callq	_ZNK2sf11VertexArray14getVertexCountEv@PLT
.Ltmp267:
	movq	%rax, -2392(%rbp)       # 8-byte Spill
	jmp	.LBB85_93
.LBB85_93:                              #   in Loop: Header=BB85_92 Depth=2
	movq	-2384(%rbp), %rax       # 8-byte Reload
	movq	-2392(%rbp), %rcx       # 8-byte Reload
	cmpq	%rcx, %rax
	jae	.LBB85_100
# %bb.94:                               #   in Loop: Header=BB85_92 Depth=2
	movq	-1696(%rbp), %rsi
	leaq	-928(%rbp), %rdi
	callq	_ZNSt6vectorIPKS_IbSaIbEESaIS3_EEixEm
	movq	(%rax), %rdi
	movq	-1720(%rbp), %rsi
.Ltmp270:
	callq	_ZNKSt6vectorIbSaIbEE2atEm
.Ltmp271:
	movb	%al, -2393(%rbp)        # 1-byte Spill
	jmp	.LBB85_95
.LBB85_95:                              #   in Loop: Header=BB85_92 Depth=2
	movb	-2393(%rbp), %al        # 1-byte Reload
	testb	$1, %al
	jne	.LBB85_96
	jmp	.LBB85_98
.LBB85_96:                              #   in Loop: Header=BB85_92 Depth=2
	movl	-1676(%rbp), %eax
	movl	%eax, %ecx
                                        # implicit-def: $xmm0
	vcvtsi2ss	%rcx, %xmm0, %xmm0
	movq	-1696(%rbp), %rsi
	leaq	-904(%rbp), %rdi
	vmovss	%xmm0, -2400(%rbp)      # 4-byte Spill
	callq	_ZNSt6vectorIN2sf11VertexArrayESaIS1_EEixEm
	movq	-1720(%rbp), %rsi
.Ltmp272:
	movq	%rax, %rdi
	callq	_ZN2sf11VertexArrayixEm@PLT
.Ltmp273:
	movq	%rax, -2408(%rbp)       # 8-byte Spill
	jmp	.LBB85_97
.LBB85_97:                              #   in Loop: Header=BB85_92 Depth=2
	vmovss	-2400(%rbp), %xmm0      # 4-byte Reload
                                        # xmm0 = mem[0],zero,zero,zero
	movq	-2408(%rbp), %rax       # 8-byte Reload
	vaddss	16(%rax), %xmm0, %xmm1
	vmovss	%xmm1, 16(%rax)
.LBB85_98:                              #   in Loop: Header=BB85_92 Depth=2
	jmp	.LBB85_99
.LBB85_99:                              #   in Loop: Header=BB85_92 Depth=2
	movq	-1720(%rbp), %rax
	addq	$1, %rax
	movq	%rax, -1720(%rbp)
	jmp	.LBB85_92
.LBB85_100:                             #   in Loop: Header=BB85_84 Depth=1
	movq	-1696(%rbp), %rsi
	leaq	-952(%rbp), %rdi
	callq	_ZNSt6vectorIPKN2sf5ImageESaIS3_EEixEm
	movq	(%rax), %rdi
.Ltmp268:
	callq	_ZNK2sf5Image7getSizeEv@PLT
.Ltmp269:
	movq	%rax, -2416(%rbp)       # 8-byte Spill
	jmp	.LBB85_101
.LBB85_101:                             #   in Loop: Header=BB85_84 Depth=1
	movq	-2416(%rbp), %rax       # 8-byte Reload
	movq	%rax, -1728(%rbp)
	movl	-1724(%rbp), %ecx
	addl	-1676(%rbp), %ecx
	movl	%ecx, -1676(%rbp)
.LBB85_102:                             #   in Loop: Header=BB85_84 Depth=1
	movq	-1688(%rbp), %rax
	addq	$1, %rax
	movq	%rax, -1688(%rbp)
	jmp	.LBB85_84
.LBB85_103:
	movq	-1888(%rbp), %rax       # 8-byte Reload
	addq	$1032, %rax             # imm = 0x408
	movzwl	-1602(%rbp), %ecx
	movl	%ecx, %esi
.Ltmp166:
	movq	%rax, %rdi
	callq	_ZNSt6vectorIbSaIbEEixEm
.Ltmp167:
	movq	%rdx, -2424(%rbp)       # 8-byte Spill
	movq	%rax, -2432(%rbp)       # 8-byte Spill
	jmp	.LBB85_104
.LBB85_104:
	movq	-2432(%rbp), %rax       # 8-byte Reload
	movq	%rax, -1384(%rbp)
	movq	-2424(%rbp), %rax       # 8-byte Reload
	movq	%rax, -1376(%rbp)
	leaq	-1384(%rbp), %rdi
	callq	_ZNKSt14_Bit_referencecvbEv
	testb	$1, %al
	jne	.LBB85_105
	jmp	.LBB85_115
.LBB85_105:
	movb	$0, -1729(%rbp)
.LBB85_106:                             # =>This Inner Loop Header: Depth=1
	movzbl	-1729(%rbp), %eax
	cmpl	$6, %eax
	jge	.LBB85_109
# %bb.107:                              #   in Loop: Header=BB85_106 Depth=1
	movl	-1676(%rbp), %eax
	movl	%eax, %ecx
                                        # implicit-def: $xmm0
	vcvtsi2ss	%rcx, %xmm0, %xmm0
	movq	-1888(%rbp), %rcx       # 8-byte Reload
	addq	$200, %rcx
	movzwl	-1602(%rbp), %eax
	movl	%eax, %esi
	movq	%rcx, %rdi
	vmovss	%xmm0, -2436(%rbp)      # 4-byte Spill
	callq	_ZNSt6vectorIS_IN2sf6VertexESaIS1_EESaIS3_EEixEm
	movzbl	-1729(%rbp), %edx
	addl	$60, %edx
	movslq	%edx, %rsi
	movq	%rax, %rdi
	callq	_ZNSt6vectorIN2sf6VertexESaIS1_EEixEm
	vmovss	-2436(%rbp), %xmm0      # 4-byte Reload
                                        # xmm0 = mem[0],zero,zero,zero
	vaddss	16(%rax), %xmm0, %xmm0
	vmovss	%xmm0, 16(%rax)
# %bb.108:                              #   in Loop: Header=BB85_106 Depth=1
	movb	-1729(%rbp), %al
	addb	$1, %al
	movb	%al, -1729(%rbp)
	jmp	.LBB85_106
.LBB85_109:
	movq	-1888(%rbp), %rax       # 8-byte Reload
	addq	$464, %rax              # imm = 0x1D0
.Ltmp168:
	movq	%rax, %rdi
	callq	_ZNK2sf7Texture7getSizeEv@PLT
.Ltmp169:
	movq	%rax, -2448(%rbp)       # 8-byte Spill
	jmp	.LBB85_110
.LBB85_110:
	movq	-2448(%rbp), %rax       # 8-byte Reload
	movq	%rax, -1744(%rbp)
	movl	-1740(%rbp), %ecx
	movl	-1676(%rbp), %edx
	addl	%ecx, %edx
	movl	%edx, -1676(%rbp)
	movq	-1888(%rbp), %rsi       # 8-byte Reload
	addq	$464, %rsi              # imm = 0x1D0
.Ltmp170:
	movq	%rsi, %rdi
	callq	_ZNK2sf7Texture7getSizeEv@PLT
.Ltmp171:
	movq	%rax, -2456(%rbp)       # 8-byte Spill
	jmp	.LBB85_111
.LBB85_111:
	movq	-2456(%rbp), %rax       # 8-byte Reload
	movq	%rax, -1752(%rbp)
	movl	-1752(%rbp), %ecx
	cmpl	-1680(%rbp), %ecx
	jbe	.LBB85_114
# %bb.112:
	movq	-1888(%rbp), %rax       # 8-byte Reload
	addq	$464, %rax              # imm = 0x1D0
.Ltmp172:
	movq	%rax, %rdi
	callq	_ZNK2sf7Texture7getSizeEv@PLT
.Ltmp173:
	movq	%rax, -2464(%rbp)       # 8-byte Spill
	jmp	.LBB85_113
.LBB85_113:
	movq	-2464(%rbp), %rax       # 8-byte Reload
	movq	%rax, -1760(%rbp)
	movl	-1760(%rbp), %ecx
	movl	%ecx, -1680(%rbp)
.LBB85_114:
	jmp	.LBB85_115
.LBB85_115:
	movb	$8, -1761(%rbp)
.Ltmp174:
	leaq	-1392(%rbp), %rdi
	xorl	%eax, %eax
	movl	%eax, %esi
	movl	%eax, %edx
	callq	_ZN2sf7Vector2IjEC2Ejj
.Ltmp175:
	jmp	.LBB85_116
.LBB85_116:
	movq	$0, -1776(%rbp)
.LBB85_117:                             # =>This Inner Loop Header: Depth=1
	cmpl	$0, -1392(%rbp)
	movb	$1, %al
	movb	%al, -2465(%rbp)        # 1-byte Spill
	je	.LBB85_119
# %bb.118:                              #   in Loop: Header=BB85_117 Depth=1
	cmpl	$0, -1388(%rbp)
	sete	%al
	movb	%al, -2465(%rbp)        # 1-byte Spill
.LBB85_119:                             #   in Loop: Header=BB85_117 Depth=1
	movb	-2465(%rbp), %al        # 1-byte Reload
	testb	$1, %al
	jne	.LBB85_120
	jmp	.LBB85_126
.LBB85_120:                             #   in Loop: Header=BB85_117 Depth=1
	movzbl	-1761(%rbp), %esi
.Ltmp260:
	movl	$2, %edi
	callq	_ZSt3powIihEN9__gnu_cxx11__promote_2IT_T0_NS0_9__promoteIS2_Xsr3std12__is_integerIS2_EE7__valueEE6__typeENS4_IS3_Xsr3std12__is_integerIS3_EE7__valueEE6__typeEE6__typeES2_S3_
.Ltmp261:
	vmovsd	%xmm0, -2480(%rbp)      # 8-byte Spill
	jmp	.LBB85_121
.LBB85_121:                             #   in Loop: Header=BB85_117 Depth=1
	vmovsd	.LCPI85_0(%rip), %xmm0  # xmm0 = mem[0],zero
	vmovsd	-2480(%rbp), %xmm1      # 8-byte Reload
                                        # xmm1 = mem[0],zero
	vsubsd	%xmm0, %xmm1, %xmm2
	vcvttsd2si	%xmm2, %rax
	movabsq	$-9223372036854775808, %rcx # imm = 0x8000000000000000
	xorq	%rcx, %rax
	vcvttsd2si	%xmm1, %rcx
	vucomisd	%xmm0, %xmm1
	cmovbq	%rcx, %rax
	movq	%rax, -1776(%rbp)
	movl	-1680(%rbp), %edx
	movl	%edx, %eax
	cmpq	-1776(%rbp), %rax
	jae	.LBB85_123
# %bb.122:                              #   in Loop: Header=BB85_117 Depth=1
	movq	-1776(%rbp), %rax
                                        # kill: def $eax killed $eax killed $rax
	movl	%eax, -1392(%rbp)
.LBB85_123:                             #   in Loop: Header=BB85_117 Depth=1
	movl	-1676(%rbp), %eax
	movl	%eax, %ecx
	cmpq	-1776(%rbp), %rcx
	jae	.LBB85_125
# %bb.124:                              #   in Loop: Header=BB85_117 Depth=1
	movq	-1776(%rbp), %rax
                                        # kill: def $eax killed $eax killed $rax
	movl	%eax, -1388(%rbp)
.LBB85_125:                             #   in Loop: Header=BB85_117 Depth=1
	movb	-1761(%rbp), %al
	addb	$1, %al
	movb	%al, -1761(%rbp)
	jmp	.LBB85_117
.LBB85_126:
	movl	-1776(%rbp), %eax
	movl	%eax, -1680(%rbp)
	movl	-1776(%rbp), %eax
	movl	%eax, -1676(%rbp)
	movq	-1888(%rbp), %rcx       # 8-byte Reload
	addq	$1032, %rcx             # imm = 0x408
	movzwl	-1602(%rbp), %eax
	movl	%eax, %esi
.Ltmp176:
	movq	%rcx, %rdi
	callq	_ZNSt6vectorIbSaIbEEixEm
.Ltmp177:
	movq	%rdx, -2488(%rbp)       # 8-byte Spill
	movq	%rax, -2496(%rbp)       # 8-byte Spill
	jmp	.LBB85_127
.LBB85_127:
	movq	-2496(%rbp), %rax       # 8-byte Reload
	movq	%rax, -1408(%rbp)
	movq	-2488(%rbp), %rax       # 8-byte Reload
	movq	%rax, -1400(%rbp)
	leaq	-1408(%rbp), %rdi
	callq	_ZNKSt14_Bit_referencecvbEv
	testb	$1, %al
	jne	.LBB85_128
	jmp	.LBB85_134
.LBB85_128:
	movb	$0, -1777(%rbp)
.LBB85_129:                             # =>This Inner Loop Header: Depth=1
	movzbl	-1777(%rbp), %eax
	cmpl	$66, %eax
	jge	.LBB85_133
# %bb.130:                              #   in Loop: Header=BB85_129 Depth=1
	movq	-1888(%rbp), %rax       # 8-byte Reload
	addq	$200, %rax
	movzwl	-1602(%rbp), %ecx
	movl	%ecx, %esi
	movq	%rax, %rdi
	movq	%rax, -2504(%rbp)       # 8-byte Spill
	callq	_ZNSt6vectorIS_IN2sf6VertexESaIS1_EESaIS3_EEixEm
	movzbl	-1777(%rbp), %ecx
	movl	%ecx, %esi
	movq	%rax, %rdi
	callq	_ZNSt6vectorIN2sf6VertexESaIS1_EEixEm
	vmovss	12(%rax), %xmm0         # xmm0 = mem[0],zero,zero,zero
	movl	-1680(%rbp), %ecx
	movl	%ecx, %eax
                                        # implicit-def: $xmm1
	vcvtsi2ss	%rax, %xmm1, %xmm1
	vdivss	%xmm1, %xmm0, %xmm0
	movzwl	-1602(%rbp), %ecx
	movl	%ecx, %esi
	movq	-2504(%rbp), %rdi       # 8-byte Reload
	vmovss	%xmm0, -2508(%rbp)      # 4-byte Spill
	callq	_ZNSt6vectorIS_IN2sf6VertexESaIS1_EESaIS3_EEixEm
	movzbl	-1777(%rbp), %ecx
	movl	%ecx, %esi
	movq	%rax, %rdi
	callq	_ZNSt6vectorIN2sf6VertexESaIS1_EEixEm
	vmovss	16(%rax), %xmm0         # xmm0 = mem[0],zero,zero,zero
	movl	-1676(%rbp), %ecx
	movl	%ecx, %eax
                                        # implicit-def: $xmm1
	vcvtsi2ss	%rax, %xmm1, %xmm1
	vdivss	%xmm1, %xmm0, %xmm1
.Ltmp258:
	leaq	-1416(%rbp), %rdi
	vmovss	-2508(%rbp), %xmm0      # 4-byte Reload
                                        # xmm0 = mem[0],zero,zero,zero
	callq	_ZN2sf7Vector2IfEC2Eff
.Ltmp259:
	jmp	.LBB85_131
.LBB85_131:                             #   in Loop: Header=BB85_129 Depth=1
	movq	-1888(%rbp), %rax       # 8-byte Reload
	addq	$200, %rax
	movzwl	-1602(%rbp), %ecx
	movl	%ecx, %esi
	movq	%rax, %rdi
	callq	_ZNSt6vectorIS_IN2sf6VertexESaIS1_EESaIS3_EEixEm
	movzbl	-1777(%rbp), %ecx
	movl	%ecx, %esi
	movq	%rax, %rdi
	callq	_ZNSt6vectorIN2sf6VertexESaIS1_EEixEm
	movq	-1416(%rbp), %rdx
	movq	%rdx, 12(%rax)
# %bb.132:                              #   in Loop: Header=BB85_129 Depth=1
	movb	-1777(%rbp), %al
	addb	$1, %al
	movb	%al, -1777(%rbp)
	jmp	.LBB85_129
.LBB85_133:
	jmp	.LBB85_134
.LBB85_134:
	movq	$0, -1792(%rbp)
.LBB85_135:                             # =>This Loop Header: Depth=1
                                        #     Child Loop BB85_137 Depth 2
	movq	-1792(%rbp), %rax
	leaq	-952(%rbp), %rdi
	movq	%rax, -2520(%rbp)       # 8-byte Spill
	callq	_ZNKSt6vectorIPKN2sf5ImageESaIS3_EE4sizeEv
	movq	-2520(%rbp), %rcx       # 8-byte Reload
	cmpq	%rax, %rcx
	jae	.LBB85_147
# %bb.136:                              #   in Loop: Header=BB85_135 Depth=1
	movq	$0, -1800(%rbp)
.LBB85_137:                             #   Parent Loop BB85_135 Depth=1
                                        # =>  This Inner Loop Header: Depth=2
	movq	-1800(%rbp), %rax
	movq	-1792(%rbp), %rsi
	leaq	-904(%rbp), %rdi
	movq	%rax, -2528(%rbp)       # 8-byte Spill
	callq	_ZNSt6vectorIN2sf11VertexArrayESaIS1_EEixEm
.Ltmp248:
	movq	%rax, %rdi
	callq	_ZNK2sf11VertexArray14getVertexCountEv@PLT
.Ltmp249:
	movq	%rax, -2536(%rbp)       # 8-byte Spill
	jmp	.LBB85_138
.LBB85_138:                             #   in Loop: Header=BB85_137 Depth=2
	movq	-2528(%rbp), %rax       # 8-byte Reload
	movq	-2536(%rbp), %rcx       # 8-byte Reload
	cmpq	%rcx, %rax
	jae	.LBB85_145
# %bb.139:                              #   in Loop: Header=BB85_137 Depth=2
	movq	-1792(%rbp), %rsi
	leaq	-904(%rbp), %rdi
	callq	_ZNSt6vectorIN2sf11VertexArrayESaIS1_EEixEm
	movq	-1800(%rbp), %rsi
.Ltmp250:
	movq	%rax, %rdi
	callq	_ZN2sf11VertexArrayixEm@PLT
.Ltmp251:
	movq	%rax, -2544(%rbp)       # 8-byte Spill
	jmp	.LBB85_140
.LBB85_140:                             #   in Loop: Header=BB85_137 Depth=2
	movq	-2544(%rbp), %rax       # 8-byte Reload
	vmovss	12(%rax), %xmm0         # xmm0 = mem[0],zero,zero,zero
	movl	-1680(%rbp), %ecx
	movl	%ecx, %edx
                                        # implicit-def: $xmm1
	vcvtsi2ss	%rdx, %xmm1, %xmm1
	vdivss	%xmm1, %xmm0, %xmm0
	movq	-1792(%rbp), %rsi
	leaq	-904(%rbp), %rdi
	vmovss	%xmm0, -2548(%rbp)      # 4-byte Spill
	callq	_ZNSt6vectorIN2sf11VertexArrayESaIS1_EEixEm
	movq	-1800(%rbp), %rsi
.Ltmp252:
	movq	%rax, %rdi
	callq	_ZN2sf11VertexArrayixEm@PLT
.Ltmp253:
	movq	%rax, -2560(%rbp)       # 8-byte Spill
	jmp	.LBB85_141
.LBB85_141:                             #   in Loop: Header=BB85_137 Depth=2
	movq	-2560(%rbp), %rax       # 8-byte Reload
	vmovss	16(%rax), %xmm0         # xmm0 = mem[0],zero,zero,zero
	movl	-1676(%rbp), %ecx
	movl	%ecx, %edx
                                        # implicit-def: $xmm1
	vcvtsi2ss	%rdx, %xmm1, %xmm1
	vdivss	%xmm1, %xmm0, %xmm1
.Ltmp254:
	leaq	-1424(%rbp), %rdi
	vmovss	-2548(%rbp), %xmm0      # 4-byte Reload
                                        # xmm0 = mem[0],zero,zero,zero
	callq	_ZN2sf7Vector2IfEC2Eff
.Ltmp255:
	jmp	.LBB85_142
.LBB85_142:                             #   in Loop: Header=BB85_137 Depth=2
	movq	-1792(%rbp), %rsi
	leaq	-904(%rbp), %rdi
	callq	_ZNSt6vectorIN2sf11VertexArrayESaIS1_EEixEm
	movq	-1800(%rbp), %rsi
.Ltmp256:
	movq	%rax, %rdi
	callq	_ZN2sf11VertexArrayixEm@PLT
.Ltmp257:
	movq	%rax, -2568(%rbp)       # 8-byte Spill
	jmp	.LBB85_143
.LBB85_143:                             #   in Loop: Header=BB85_137 Depth=2
	movq	-1424(%rbp), %rax
	movq	-2568(%rbp), %rcx       # 8-byte Reload
	movq	%rax, 12(%rcx)
# %bb.144:                              #   in Loop: Header=BB85_137 Depth=2
	movq	-1800(%rbp), %rax
	addq	$1, %rax
	movq	%rax, -1800(%rbp)
	jmp	.LBB85_137
.LBB85_145:                             #   in Loop: Header=BB85_135 Depth=1
	jmp	.LBB85_146
.LBB85_146:                             #   in Loop: Header=BB85_135 Depth=1
	movq	-1792(%rbp), %rax
	addq	$1, %rax
	movq	%rax, -1792(%rbp)
	jmp	.LBB85_135
.LBB85_147:
	movq	$0, -1808(%rbp)
.LBB85_148:                             # =>This Loop Header: Depth=1
                                        #     Child Loop BB85_150 Depth 2
	movq	-1808(%rbp), %rax
	leaq	-976(%rbp), %rdi
	movq	%rax, -2576(%rbp)       # 8-byte Spill
	callq	_ZNKSt6vectorIS_IN2sf6VertexESaIS1_EESaIS3_EE4sizeEv
	movq	-2576(%rbp), %rcx       # 8-byte Reload
	cmpq	%rax, %rcx
	jae	.LBB85_156
# %bb.149:                              #   in Loop: Header=BB85_148 Depth=1
	movb	$0, -1809(%rbp)
.LBB85_150:                             #   Parent Loop BB85_148 Depth=1
                                        # =>  This Inner Loop Header: Depth=2
	movzbl	-1809(%rbp), %eax
	cmpl	$6, %eax
	jge	.LBB85_154
# %bb.151:                              #   in Loop: Header=BB85_150 Depth=2
	movq	-1808(%rbp), %rsi
	leaq	-976(%rbp), %rax
	movq	%rax, %rdi
	movq	%rax, -2584(%rbp)       # 8-byte Spill
	callq	_ZNSt6vectorIS_IN2sf6VertexESaIS1_EESaIS3_EEixEm
	movzbl	-1809(%rbp), %ecx
	movl	%ecx, %esi
	movq	%rax, %rdi
	callq	_ZNSt6vectorIN2sf6VertexESaIS1_EEixEm
	vmovss	12(%rax), %xmm0         # xmm0 = mem[0],zero,zero,zero
	movl	-1680(%rbp), %ecx
	movl	%ecx, %eax
                                        # implicit-def: $xmm1
	vcvtsi2ss	%rax, %xmm1, %xmm1
	vdivss	%xmm1, %xmm0, %xmm0
	movq	-1808(%rbp), %rsi
	movq	-2584(%rbp), %rdi       # 8-byte Reload
	vmovss	%xmm0, -2588(%rbp)      # 4-byte Spill
	callq	_ZNSt6vectorIS_IN2sf6VertexESaIS1_EESaIS3_EEixEm
	movzbl	-1809(%rbp), %ecx
	movl	%ecx, %esi
	movq	%rax, %rdi
	callq	_ZNSt6vectorIN2sf6VertexESaIS1_EEixEm
	vmovss	16(%rax), %xmm0         # xmm0 = mem[0],zero,zero,zero
	movl	-1676(%rbp), %ecx
	movl	%ecx, %eax
                                        # implicit-def: $xmm1
	vcvtsi2ss	%rax, %xmm1, %xmm1
	vdivss	%xmm1, %xmm0, %xmm1
.Ltmp246:
	leaq	-1432(%rbp), %rdi
	vmovss	-2588(%rbp), %xmm0      # 4-byte Reload
                                        # xmm0 = mem[0],zero,zero,zero
	callq	_ZN2sf7Vector2IfEC2Eff
.Ltmp247:
	jmp	.LBB85_152
.LBB85_152:                             #   in Loop: Header=BB85_150 Depth=2
	movq	-1808(%rbp), %rsi
	leaq	-976(%rbp), %rdi
	callq	_ZNSt6vectorIS_IN2sf6VertexESaIS1_EESaIS3_EEixEm
	movzbl	-1809(%rbp), %ecx
	movl	%ecx, %esi
	movq	%rax, %rdi
	callq	_ZNSt6vectorIN2sf6VertexESaIS1_EEixEm
	movq	-1432(%rbp), %rdx
	movq	%rdx, 12(%rax)
# %bb.153:                              #   in Loop: Header=BB85_150 Depth=2
	movb	-1809(%rbp), %al
	addb	$1, %al
	movb	%al, -1809(%rbp)
	jmp	.LBB85_150
.LBB85_154:                             #   in Loop: Header=BB85_148 Depth=1
	jmp	.LBB85_155
.LBB85_155:                             #   in Loop: Header=BB85_148 Depth=1
	movq	-1808(%rbp), %rax
	addq	$1, %rax
	movq	%rax, -1808(%rbp)
	jmp	.LBB85_148
.LBB85_156:
	cmpl	$0, -1680(%rbp)
	jbe	.LBB85_199
# %bb.157:
	cmpl	$0, -1676(%rbp)
	jbe	.LBB85_199
# %bb.158:
.Ltmp180:
	leaq	-536(%rbp), %rdi
	callq	_ZN2sf13RenderTextureC1Ev@PLT
.Ltmp181:
	jmp	.LBB85_159
.LBB85_159:
	movl	-1680(%rbp), %esi
	movl	-1676(%rbp), %edx
.Ltmp182:
	movq	%rsp, %rax
	movl	$0, 8(%rax)
	movl	$0, (%rax)
	leaq	-856(%rbp), %rdi
	xorl	%ecx, %ecx
	movl	$1, %r8d
	movl	%esi, -2592(%rbp)       # 4-byte Spill
	movl	%ecx, %esi
	movl	%edx, -2596(%rbp)       # 4-byte Spill
	movl	%ecx, %edx
	movl	%r8d, -2600(%rbp)       # 4-byte Spill
	movl	-2600(%rbp), %r9d       # 4-byte Reload
	callq	_ZN2sf15ContextSettingsC2Ejjjjjjb
.Ltmp183:
	jmp	.LBB85_160
.LBB85_160:
.Ltmp184:
	leaq	-536(%rbp), %rdi
	leaq	-856(%rbp), %rcx
	movl	-2592(%rbp), %esi       # 4-byte Reload
	movl	-2596(%rbp), %edx       # 4-byte Reload
	callq	_ZN2sf13RenderTexture6createEjjRKNS_15ContextSettingsE@PLT
.Ltmp185:
	jmp	.LBB85_161
.LBB85_161:
	leaq	-536(%rbp), %rdi
.Ltmp186:
	leaq	-1440(%rbp), %rax
	xorl	%ecx, %ecx
	movq	%rdi, -2608(%rbp)       # 8-byte Spill
	movq	%rax, %rdi
	movl	%ecx, %esi
	movl	%ecx, %edx
	movl	%ecx, -2612(%rbp)       # 4-byte Spill
	movl	-2612(%rbp), %r8d       # 4-byte Reload
	callq	_ZN2sf5ColorC1Ehhhh@PLT
.Ltmp187:
	jmp	.LBB85_162
.LBB85_162:
.Ltmp188:
	leaq	-1440(%rbp), %rsi
	movq	-2608(%rbp), %rdi       # 8-byte Reload
	callq	_ZN2sf12RenderTarget5clearERKNS_5ColorE@PLT
.Ltmp189:
	jmp	.LBB85_163
.LBB85_163:
.Ltmp190:
	leaq	-1480(%rbp), %rdi
	callq	_ZN2sf7TextureC1Ev@PLT
.Ltmp191:
	jmp	.LBB85_164
.LBB85_164:
.Ltmp193:
	leaq	-824(%rbp), %rdi
	callq	_ZN2sf6SpriteC1Ev@PLT
.Ltmp194:
	jmp	.LBB85_165
.LBB85_165:
	movl	-1676(%rbp), %eax
	movl	%eax, %ecx
	movq	%rcx, -1824(%rbp)
	movq	$0, -1832(%rbp)
.LBB85_166:                             # =>This Inner Loop Header: Depth=1
	movq	-1832(%rbp), %rax
	leaq	-952(%rbp), %rdi
	movq	%rax, -2624(%rbp)       # 8-byte Spill
	callq	_ZNKSt6vectorIPKN2sf5ImageESaIS3_EE4sizeEv
	movq	-2624(%rbp), %rcx       # 8-byte Reload
	cmpq	%rax, %rcx
	jae	.LBB85_180
# %bb.167:                              #   in Loop: Header=BB85_166 Depth=1
	leaq	-952(%rbp), %rdi
	callq	_ZNKSt6vectorIPKN2sf5ImageESaIS3_EE4sizeEv
	subq	-1832(%rbp), %rax
	subq	$1, %rax
	movq	%rax, -1840(%rbp)
	movq	-1840(%rbp), %rsi
	leaq	-952(%rbp), %rdi
	callq	_ZNSt6vectorIPKN2sf5ImageESaIS3_EEixEm
	cmpq	$0, (%rax)
	jne	.LBB85_171
# %bb.168:                              #   in Loop: Header=BB85_166 Depth=1
	jmp	.LBB85_178
.LBB85_169:
.Ltmp192:
                                        # kill: def $edx killed $edx killed $rdx
	movq	%rax, -1624(%rbp)
	movl	%edx, -1628(%rbp)
	jmp	.LBB85_198
.LBB85_170:
.Ltmp195:
                                        # kill: def $edx killed $edx killed $rdx
	movq	%rax, -1624(%rbp)
	movl	%edx, -1628(%rbp)
	jmp	.LBB85_197
.LBB85_171:                             #   in Loop: Header=BB85_166 Depth=1
	movq	-1840(%rbp), %rsi
	leaq	-952(%rbp), %rdi
	callq	_ZNSt6vectorIPKN2sf5ImageESaIS3_EEixEm
	movq	(%rax), %rsi
.Ltmp233:
	leaq	-1496(%rbp), %rdi
	movq	%rsi, -2632(%rbp)       # 8-byte Spill
	callq	_ZN2sf4RectIiEC2Ev
.Ltmp234:
	jmp	.LBB85_172
.LBB85_172:                             #   in Loop: Header=BB85_166 Depth=1
.Ltmp235:
	leaq	-1480(%rbp), %rdi
	leaq	-1496(%rbp), %rdx
	movq	-2632(%rbp), %rsi       # 8-byte Reload
	callq	_ZN2sf7Texture13loadFromImageERKNS_5ImageERKNS_4RectIiEE@PLT
.Ltmp236:
	jmp	.LBB85_173
.LBB85_173:                             #   in Loop: Header=BB85_166 Depth=1
	movq	-1840(%rbp), %rsi
	leaq	-952(%rbp), %rdi
	callq	_ZNSt6vectorIPKN2sf5ImageESaIS3_EEixEm
	movq	(%rax), %rdi
.Ltmp237:
	callq	_ZNK2sf5Image7getSizeEv@PLT
.Ltmp238:
	movq	%rax, -2640(%rbp)       # 8-byte Spill
	jmp	.LBB85_174
.LBB85_174:                             #   in Loop: Header=BB85_166 Depth=1
	movq	-2640(%rbp), %rax       # 8-byte Reload
	movq	%rax, -1848(%rbp)
	movl	-1844(%rbp), %ecx
	movl	%ecx, %edx
	movq	-1824(%rbp), %rsi
	subq	%rdx, %rsi
	movq	%rsi, -1824(%rbp)
.Ltmp239:
	leaq	-824(%rbp), %rdi
	leaq	-1480(%rbp), %rsi
	movl	$1, %edx
	callq	_ZN2sf6Sprite10setTextureERKNS_7TextureEb@PLT
.Ltmp240:
	jmp	.LBB85_175
.LBB85_175:                             #   in Loop: Header=BB85_166 Depth=1
	leaq	-816(%rbp), %rdi
                                        # implicit-def: $xmm0
	vcvtsi2ssq	-1824(%rbp), %xmm0, %xmm1
.Ltmp241:
	vxorps	%xmm0, %xmm0, %xmm0
	callq	_ZN2sf13Transformable11setPositionEff@PLT
.Ltmp242:
	jmp	.LBB85_176
.LBB85_176:                             #   in Loop: Header=BB85_166 Depth=1
.Ltmp243:
	movq	_ZN2sf12RenderStates7DefaultE@GOTPCREL(%rip), %rdx
	leaq	-536(%rbp), %rdi
	leaq	-824(%rbp), %rsi
	callq	_ZN2sf12RenderTarget4drawERKNS_8DrawableERKNS_12RenderStatesE@PLT
.Ltmp244:
	jmp	.LBB85_177
.LBB85_177:                             #   in Loop: Header=BB85_166 Depth=1
	jmp	.LBB85_178
.LBB85_178:                             #   in Loop: Header=BB85_166 Depth=1
	movq	-1832(%rbp), %rax
	addq	$1, %rax
	movq	%rax, -1832(%rbp)
	jmp	.LBB85_166
.LBB85_179:
.Ltmp245:
                                        # kill: def $edx killed $edx killed $rdx
	movq	%rax, -1624(%rbp)
	movl	%edx, -1628(%rbp)
	jmp	.LBB85_196
.LBB85_180:
	movq	-1888(%rbp), %rax       # 8-byte Reload
	addq	$1032, %rax             # imm = 0x408
	movzwl	-1602(%rbp), %ecx
	movl	%ecx, %esi
.Ltmp196:
	movq	%rax, %rdi
	callq	_ZNSt6vectorIbSaIbEEixEm
.Ltmp197:
	movq	%rdx, -2648(%rbp)       # 8-byte Spill
	movq	%rax, -2656(%rbp)       # 8-byte Spill
	jmp	.LBB85_181
.LBB85_181:
	movq	-2656(%rbp), %rax       # 8-byte Reload
	movq	%rax, -1512(%rbp)
	movq	-2648(%rbp), %rax       # 8-byte Reload
	movq	%rax, -1504(%rbp)
	leaq	-1512(%rbp), %rdi
	callq	_ZNKSt14_Bit_referencecvbEv
	testb	$1, %al
	jne	.LBB85_182
	jmp	.LBB85_187
.LBB85_182:
	movq	-1888(%rbp), %rax       # 8-byte Reload
	addq	$464, %rax              # imm = 0x1D0
.Ltmp198:
	movq	%rax, %rdi
	callq	_ZNK2sf7Texture7getSizeEv@PLT
.Ltmp199:
	movq	%rax, -2664(%rbp)       # 8-byte Spill
	jmp	.LBB85_183
.LBB85_183:
	movq	-2664(%rbp), %rax       # 8-byte Reload
	movq	%rax, -1856(%rbp)
	movl	-1852(%rbp), %ecx
	movl	%ecx, %edx
	movq	-1824(%rbp), %rsi
	subq	%rdx, %rsi
	movq	%rsi, -1824(%rbp)
	movq	-1888(%rbp), %rdx       # 8-byte Reload
	addq	$464, %rdx              # imm = 0x1D0
.Ltmp200:
	leaq	-824(%rbp), %rdi
	movl	$1, %ecx
	movq	%rdx, %rsi
	movl	%ecx, %edx
	callq	_ZN2sf6Sprite10setTextureERKNS_7TextureEb@PLT
.Ltmp201:
	jmp	.LBB85_184
.LBB85_184:
	leaq	-816(%rbp), %rdi
                                        # implicit-def: $xmm0
	vcvtsi2ssq	-1824(%rbp), %xmm0, %xmm1
.Ltmp202:
	vxorps	%xmm0, %xmm0, %xmm0
	callq	_ZN2sf13Transformable11setPositionEff@PLT
.Ltmp203:
	jmp	.LBB85_185
.LBB85_185:
.Ltmp204:
	movq	_ZN2sf12RenderStates7DefaultE@GOTPCREL(%rip), %rdx
	leaq	-536(%rbp), %rdi
	leaq	-824(%rbp), %rsi
	callq	_ZN2sf12RenderTarget4drawERKNS_8DrawableERKNS_12RenderStatesE@PLT
.Ltmp205:
	jmp	.LBB85_186
.LBB85_186:
	jmp	.LBB85_187
.LBB85_187:
.Ltmp206:
	leaq	-536(%rbp), %rdi
	callq	_ZNK2sf13RenderTexture10getTextureEv@PLT
.Ltmp207:
	movq	%rax, -2672(%rbp)       # 8-byte Spill
	jmp	.LBB85_188
.LBB85_188:
.Ltmp208:
	leaq	-1544(%rbp), %rdi
	movq	-2672(%rbp), %rsi       # 8-byte Reload
	callq	_ZNK2sf7Texture11copyToImageEv@PLT
.Ltmp209:
	jmp	.LBB85_189
.LBB85_189:
	movq	-1888(%rbp), %rax       # 8-byte Reload
	addq	$272, %rax              # imm = 0x110
	movzwl	-1602(%rbp), %ecx
	movl	%ecx, %esi
	movq	%rax, %rdi
	callq	_ZNSt6vectorIN2sf5ImageESaIS1_EEixEm
.Ltmp210:
	leaq	-1544(%rbp), %rsi
	movq	%rax, %rdi
	callq	_ZN2sf5ImageaSERKS0_
.Ltmp211:
	jmp	.LBB85_190
.LBB85_190:
	leaq	-1544(%rbp), %rdi
	callq	_ZN2sf5ImageD1Ev@PLT
	movq	-1888(%rbp), %rax       # 8-byte Reload
	addq	$272, %rax              # imm = 0x110
	movzwl	-1602(%rbp), %ecx
	movl	%ecx, %esi
	movq	%rax, %rdi
	callq	_ZNSt6vectorIN2sf5ImageESaIS1_EEixEm
.Ltmp213:
	movq	_ZN2sf5Color5WhiteE@GOTPCREL(%rip), %rcx
	xorl	%edx, %edx
	movq	%rax, %rdi
	movl	%edx, %esi
	callq	_ZN2sf5Image8setPixelEjjRKNS_5ColorE@PLT
.Ltmp214:
	jmp	.LBB85_191
.LBB85_191:
	movq	-1888(%rbp), %rax       # 8-byte Reload
	addq	$296, %rax              # imm = 0x128
	movzwl	-1602(%rbp), %ecx
	movl	%ecx, %esi
	movq	%rax, %rdi
	callq	_ZNSt6vectorIN2sf7TextureESaIS1_EEixEm
	movq	-1888(%rbp), %rdx       # 8-byte Reload
	addq	$272, %rdx              # imm = 0x110
	movzwl	-1602(%rbp), %ecx
	movl	%ecx, %esi
	movq	%rdx, %rdi
	movq	%rax, -2680(%rbp)       # 8-byte Spill
	callq	_ZNSt6vectorIN2sf5ImageESaIS1_EEixEm
.Ltmp215:
	leaq	-1560(%rbp), %rdi
	movq	%rax, -2688(%rbp)       # 8-byte Spill
	callq	_ZN2sf4RectIiEC2Ev
.Ltmp216:
	jmp	.LBB85_192
.LBB85_192:
.Ltmp217:
	leaq	-1560(%rbp), %rdx
	movq	-2680(%rbp), %rdi       # 8-byte Reload
	movq	-2688(%rbp), %rsi       # 8-byte Reload
	callq	_ZN2sf7Texture13loadFromImageERKNS_5ImageERKNS_4RectIiEE@PLT
.Ltmp218:
	jmp	.LBB85_193
.LBB85_193:
	movq	-1888(%rbp), %rax       # 8-byte Reload
	addq	$320, %rax              # imm = 0x140
	movzwl	-1602(%rbp), %ecx
	movl	%ecx, %esi
.Ltmp219:
	movq	%rax, %rdi
	callq	_ZNSt6vectorIbSaIbEEixEm
.Ltmp220:
	movq	%rdx, -2696(%rbp)       # 8-byte Spill
	movq	%rax, -2704(%rbp)       # 8-byte Spill
	jmp	.LBB85_194
.LBB85_194:
	movq	-2704(%rbp), %rax       # 8-byte Reload
	movq	%rax, -1576(%rbp)
	movq	-2696(%rbp), %rax       # 8-byte Reload
	movq	%rax, -1568(%rbp)
	leaq	-1576(%rbp), %rdi
	movl	$1, %esi
	callq	_ZNSt14_Bit_referenceaSEb
	leaq	-824(%rbp), %rdi
	movq	%rax, -2712(%rbp)       # 8-byte Spill
	callq	_ZN2sf6SpriteD2Ev
	leaq	-1480(%rbp), %rdi
	callq	_ZN2sf7TextureD1Ev@PLT
	leaq	-536(%rbp), %rdi
	callq	_ZN2sf13RenderTextureD1Ev@PLT
	jmp	.LBB85_201
.LBB85_195:
.Ltmp212:
                                        # kill: def $edx killed $edx killed $rdx
	movq	%rax, -1624(%rbp)
	movl	%edx, -1628(%rbp)
	leaq	-1544(%rbp), %rdi
	callq	_ZN2sf5ImageD1Ev@PLT
.LBB85_196:
	leaq	-824(%rbp), %rdi
	callq	_ZN2sf6SpriteD2Ev
.LBB85_197:
	leaq	-1480(%rbp), %rdi
	callq	_ZN2sf7TextureD1Ev@PLT
.LBB85_198:
	leaq	-536(%rbp), %rdi
	callq	_ZN2sf13RenderTextureD1Ev@PLT
	jmp	.LBB85_225
.LBB85_199:
	movq	-1888(%rbp), %rax       # 8-byte Reload
	addq	$320, %rax              # imm = 0x140
	movzwl	-1602(%rbp), %ecx
	movl	%ecx, %esi
.Ltmp178:
	movq	%rax, %rdi
	callq	_ZNSt6vectorIbSaIbEEixEm
.Ltmp179:
	movq	%rdx, -2720(%rbp)       # 8-byte Spill
	movq	%rax, -2728(%rbp)       # 8-byte Spill
	jmp	.LBB85_200
.LBB85_200:
	xorl	%esi, %esi
	movq	-2728(%rbp), %rax       # 8-byte Reload
	movq	%rax, -1592(%rbp)
	movq	-2720(%rbp), %rax       # 8-byte Reload
	movq	%rax, -1584(%rbp)
	leaq	-1592(%rbp), %rdi
	callq	_ZNSt14_Bit_referenceaSEb
.LBB85_201:
	movl	$0, -1860(%rbp)
	movq	$0, -1872(%rbp)
.LBB85_202:                             # =>This Loop Header: Depth=1
                                        #     Child Loop BB85_204 Depth 2
                                        #     Child Loop BB85_209 Depth 2
                                        #       Child Loop BB85_211 Depth 3
	movq	-1872(%rbp), %rax
	leaq	-1000(%rbp), %rdi
	movq	%rax, -2736(%rbp)       # 8-byte Spill
	callq	_ZNKSt6vectorItSaItEE4sizeEv
	movq	-2736(%rbp), %rcx       # 8-byte Reload
	cmpq	%rax, %rcx
	jae	.LBB85_221
# %bb.203:                              #   in Loop: Header=BB85_202 Depth=1
	movb	$0, -1873(%rbp)
.LBB85_204:                             #   Parent Loop BB85_202 Depth=1
                                        # =>  This Inner Loop Header: Depth=2
	movzbl	-1873(%rbp), %eax
	cmpl	$6, %eax
	jge	.LBB85_208
# %bb.205:                              #   in Loop: Header=BB85_204 Depth=2
	movq	-1888(%rbp), %rax       # 8-byte Reload
	addq	$200, %rax
	movzwl	-1602(%rbp), %ecx
	movl	%ecx, %esi
	movq	%rax, %rdi
	callq	_ZNSt6vectorIS_IN2sf6VertexESaIS1_EESaIS3_EEixEm
	movq	-1872(%rbp), %rsi
	leaq	-976(%rbp), %rdi
	movq	%rax, -2744(%rbp)       # 8-byte Spill
	callq	_ZNSt6vectorIS_IN2sf6VertexESaIS1_EESaIS3_EEixEm
	movzbl	-1873(%rbp), %ecx
	movl	%ecx, %esi
	movq	%rax, %rdi
	callq	_ZNSt6vectorIN2sf6VertexESaIS1_EEixEm
.Ltmp231:
	movq	-2744(%rbp), %rdi       # 8-byte Reload
	movq	%rax, %rsi
	callq	_ZNSt6vectorIN2sf6VertexESaIS1_EE9push_backERKS1_
.Ltmp232:
	jmp	.LBB85_206
.LBB85_206:                             #   in Loop: Header=BB85_204 Depth=2
	jmp	.LBB85_207
.LBB85_207:                             #   in Loop: Header=BB85_204 Depth=2
	movb	-1873(%rbp), %al
	addb	$1, %al
	movb	%al, -1873(%rbp)
	jmp	.LBB85_204
.LBB85_208:                             #   in Loop: Header=BB85_202 Depth=1
	movw	$0, -1876(%rbp)
.LBB85_209:                             #   Parent Loop BB85_202 Depth=1
                                        # =>  This Loop Header: Depth=2
                                        #       Child Loop BB85_211 Depth 3
	movzwl	-1876(%rbp), %eax
	movq	-1872(%rbp), %rsi
	leaq	-1000(%rbp), %rdi
	movl	%eax, -2748(%rbp)       # 4-byte Spill
	callq	_ZNSt6vectorItSaItEEixEm
	movzwl	(%rax), %ecx
	movl	-2748(%rbp), %edx       # 4-byte Reload
	cmpl	%ecx, %edx
	jge	.LBB85_219
# %bb.210:                              #   in Loop: Header=BB85_209 Depth=2
	movw	$0, -1878(%rbp)
.LBB85_211:                             #   Parent Loop BB85_202 Depth=1
                                        #     Parent Loop BB85_209 Depth=2
                                        # =>    This Inner Loop Header: Depth=3
	movzwl	-1878(%rbp), %eax
	movl	%eax, %ecx
	movl	-1860(%rbp), %eax
	movl	%eax, %esi
	leaq	-904(%rbp), %rdi
	movq	%rcx, -2760(%rbp)       # 8-byte Spill
	callq	_ZNSt6vectorIN2sf11VertexArrayESaIS1_EEixEm
.Ltmp225:
	movq	%rax, %rdi
	callq	_ZNK2sf11VertexArray14getVertexCountEv@PLT
.Ltmp226:
	movq	%rax, -2768(%rbp)       # 8-byte Spill
	jmp	.LBB85_212
.LBB85_212:                             #   in Loop: Header=BB85_211 Depth=3
	movq	-2760(%rbp), %rax       # 8-byte Reload
	movq	-2768(%rbp), %rcx       # 8-byte Reload
	cmpq	%rcx, %rax
	jae	.LBB85_217
# %bb.213:                              #   in Loop: Header=BB85_211 Depth=3
	movq	-1888(%rbp), %rax       # 8-byte Reload
	addq	$200, %rax
	movzwl	-1602(%rbp), %ecx
	movl	%ecx, %esi
	movq	%rax, %rdi
	callq	_ZNSt6vectorIS_IN2sf6VertexESaIS1_EESaIS3_EEixEm
	movl	-1860(%rbp), %ecx
	movl	%ecx, %esi
	leaq	-904(%rbp), %rdi
	movq	%rax, -2776(%rbp)       # 8-byte Spill
	callq	_ZNSt6vectorIN2sf11VertexArrayESaIS1_EEixEm
	movzwl	-1878(%rbp), %ecx
	movl	%ecx, %esi
.Ltmp227:
	movq	%rax, %rdi
	callq	_ZN2sf11VertexArrayixEm@PLT
.Ltmp228:
	movq	%rax, -2784(%rbp)       # 8-byte Spill
	jmp	.LBB85_214
.LBB85_214:                             #   in Loop: Header=BB85_211 Depth=3
.Ltmp229:
	movq	-2776(%rbp), %rdi       # 8-byte Reload
	movq	-2784(%rbp), %rsi       # 8-byte Reload
	callq	_ZNSt6vectorIN2sf6VertexESaIS1_EE9push_backERKS1_
.Ltmp230:
	jmp	.LBB85_215
.LBB85_215:                             #   in Loop: Header=BB85_211 Depth=3
	jmp	.LBB85_216
.LBB85_216:                             #   in Loop: Header=BB85_211 Depth=3
	movw	-1878(%rbp), %ax
	addw	$1, %ax
	movw	%ax, -1878(%rbp)
	jmp	.LBB85_211
.LBB85_217:                             #   in Loop: Header=BB85_209 Depth=2
	movl	-1860(%rbp), %eax
	addl	$1, %eax
	movl	%eax, -1860(%rbp)
# %bb.218:                              #   in Loop: Header=BB85_209 Depth=2
	movw	-1876(%rbp), %ax
	addw	$1, %ax
	movw	%ax, -1876(%rbp)
	jmp	.LBB85_209
.LBB85_219:                             #   in Loop: Header=BB85_202 Depth=1
	jmp	.LBB85_220
.LBB85_220:                             #   in Loop: Header=BB85_202 Depth=1
	movq	-1872(%rbp), %rax
	addq	$1, %rax
	movq	%rax, -1872(%rbp)
	jmp	.LBB85_202
.LBB85_221:
	movq	-1888(%rbp), %rax       # 8-byte Reload
	addq	$224, %rax
	movzwl	-1602(%rbp), %ecx
	movl	%ecx, %esi
	movq	%rax, %rdi
	callq	_ZNSt6vectorIN2sf12VertexBufferESaIS1_EEixEm
	movq	-1888(%rbp), %rdx       # 8-byte Reload
	addq	$200, %rdx
	movzwl	-1602(%rbp), %ecx
	movl	%ecx, %esi
	movq	%rdx, %rdi
	movq	%rax, -2792(%rbp)       # 8-byte Spill
	callq	_ZNSt6vectorIS_IN2sf6VertexESaIS1_EESaIS3_EEixEm
	movq	%rax, %rdi
	callq	_ZNKSt6vectorIN2sf6VertexESaIS1_EE4sizeEv
.Ltmp221:
	movq	-2792(%rbp), %rdi       # 8-byte Reload
	movq	%rax, %rsi
	callq	_ZN2sf12VertexBuffer6createEm@PLT
.Ltmp222:
	jmp	.LBB85_222
.LBB85_222:
	movq	-1888(%rbp), %rax       # 8-byte Reload
	addq	$224, %rax
	movzwl	-1602(%rbp), %ecx
	movl	%ecx, %esi
	movq	%rax, %rdi
	callq	_ZNSt6vectorIN2sf12VertexBufferESaIS1_EEixEm
	movq	-1888(%rbp), %rdx       # 8-byte Reload
	addq	$200, %rdx
	movzwl	-1602(%rbp), %ecx
	movl	%ecx, %esi
	movq	%rdx, %rdi
	movq	%rax, -2800(%rbp)       # 8-byte Spill
	movq	%rdx, -2808(%rbp)       # 8-byte Spill
	callq	_ZNSt6vectorIS_IN2sf6VertexESaIS1_EESaIS3_EEixEm
	xorl	%ecx, %ecx
	movl	%ecx, %esi
	movq	%rax, %rdi
	movl	%ecx, -2812(%rbp)       # 4-byte Spill
	callq	_ZNSt6vectorIN2sf6VertexESaIS1_EEixEm
	movzwl	-1602(%rbp), %ecx
	movl	%ecx, %esi
	movq	-2808(%rbp), %rdi       # 8-byte Reload
	movq	%rax, -2824(%rbp)       # 8-byte Spill
	callq	_ZNSt6vectorIS_IN2sf6VertexESaIS1_EESaIS3_EEixEm
	movq	%rax, %rdi
	callq	_ZNKSt6vectorIN2sf6VertexESaIS1_EE4sizeEv
.Ltmp223:
	movq	-2800(%rbp), %rdi       # 8-byte Reload
	movq	-2824(%rbp), %rsi       # 8-byte Reload
	movq	%rax, %rdx
	movl	-2812(%rbp), %ecx       # 4-byte Reload
	callq	_ZN2sf12VertexBuffer6updateEPKNS_6VertexEmj@PLT
.Ltmp224:
	jmp	.LBB85_223
.LBB85_223:
	leaq	-1000(%rbp), %rdi
	callq	_ZNSt6vectorItSaItEED2Ev
	leaq	-976(%rbp), %rdi
	callq	_ZNSt6vectorIS_IN2sf6VertexESaIS1_EESaIS3_EED2Ev
	leaq	-952(%rbp), %rdi
	callq	_ZNSt6vectorIPKN2sf5ImageESaIS3_EED2Ev
	leaq	-928(%rbp), %rdi
	callq	_ZNSt6vectorIPKS_IbSaIbEESaIS3_EED2Ev
	leaq	-904(%rbp), %rdi
	callq	_ZNSt6vectorIN2sf11VertexArrayESaIS1_EED2Ev
	movq	%fs:40, %rax
	movq	-8(%rbp), %rcx
	cmpq	%rcx, %rax
	jne	.LBB85_227
# %bb.224:
	addq	$2848, %rsp             # imm = 0xB20
	popq	%rbp
	.cfi_def_cfa %rsp, 8
	retq
.LBB85_225:
	.cfi_def_cfa %rbp, 16
	leaq	-1000(%rbp), %rdi
	callq	_ZNSt6vectorItSaItEED2Ev
	leaq	-976(%rbp), %rdi
	callq	_ZNSt6vectorIS_IN2sf6VertexESaIS1_EESaIS3_EED2Ev
	leaq	-952(%rbp), %rdi
	callq	_ZNSt6vectorIPKN2sf5ImageESaIS3_EED2Ev
	leaq	-928(%rbp), %rdi
	callq	_ZNSt6vectorIPKS_IbSaIbEESaIS3_EED2Ev
	leaq	-904(%rbp), %rdi
	callq	_ZNSt6vectorIN2sf11VertexArrayESaIS1_EED2Ev
# %bb.226:
	movq	-1624(%rbp), %rdi
	callq	_Unwind_Resume@PLT
.LBB85_227:
	callq	__stack_chk_fail@PLT
.Lfunc_end85:
	.size	_ZN5Plane12UpdateBufferEt, .Lfunc_end85-_ZN5Plane12UpdateBufferEt
	.cfi_endproc
	.section	.gcc_except_table,"a",@progbits
	.p2align	2
GCC_except_table85:
.Lexception13:
	.byte	255                     # @LPStart Encoding = omit
	.byte	255                     # @TType Encoding = omit
	.byte	1                       # Call site Encoding = uleb128
	.uleb128 .Lcst_end13-.Lcst_begin13
.Lcst_begin13:
	.uleb128 .Lfunc_begin13-.Lfunc_begin13 # >> Call Site 1 <<
	.uleb128 .Ltmp164-.Lfunc_begin13 #   Call between .Lfunc_begin13 and .Ltmp164
	.byte	0                       #     has no landing pad
	.byte	0                       #   On action: cleanup
	.uleb128 .Ltmp164-.Lfunc_begin13 # >> Call Site 2 <<
	.uleb128 .Ltmp277-.Ltmp164      #   Call between .Ltmp164 and .Ltmp277
	.uleb128 .Ltmp399-.Lfunc_begin13 #     jumps to .Ltmp399
	.byte	0                       #   On action: cleanup
	.uleb128 .Ltmp278-.Lfunc_begin13 # >> Call Site 3 <<
	.uleb128 .Ltmp279-.Ltmp278      #   Call between .Ltmp278 and .Ltmp279
	.uleb128 .Ltmp280-.Lfunc_begin13 #     jumps to .Ltmp280
	.byte	0                       #   On action: cleanup
	.uleb128 .Ltmp281-.Lfunc_begin13 # >> Call Site 4 <<
	.uleb128 .Ltmp181-.Ltmp281      #   Call between .Ltmp281 and .Ltmp181
	.uleb128 .Ltmp399-.Lfunc_begin13 #     jumps to .Ltmp399
	.byte	0                       #   On action: cleanup
	.uleb128 .Ltmp182-.Lfunc_begin13 # >> Call Site 5 <<
	.uleb128 .Ltmp191-.Ltmp182      #   Call between .Ltmp182 and .Ltmp191
	.uleb128 .Ltmp192-.Lfunc_begin13 #     jumps to .Ltmp192
	.byte	0                       #   On action: cleanup
	.uleb128 .Ltmp193-.Lfunc_begin13 # >> Call Site 6 <<
	.uleb128 .Ltmp194-.Ltmp193      #   Call between .Ltmp193 and .Ltmp194
	.uleb128 .Ltmp195-.Lfunc_begin13 #     jumps to .Ltmp195
	.byte	0                       #   On action: cleanup
	.uleb128 .Ltmp233-.Lfunc_begin13 # >> Call Site 7 <<
	.uleb128 .Ltmp209-.Ltmp233      #   Call between .Ltmp233 and .Ltmp209
	.uleb128 .Ltmp245-.Lfunc_begin13 #     jumps to .Ltmp245
	.byte	0                       #   On action: cleanup
	.uleb128 .Ltmp210-.Lfunc_begin13 # >> Call Site 8 <<
	.uleb128 .Ltmp211-.Ltmp210      #   Call between .Ltmp210 and .Ltmp211
	.uleb128 .Ltmp212-.Lfunc_begin13 #     jumps to .Ltmp212
	.byte	0                       #   On action: cleanup
	.uleb128 .Ltmp213-.Lfunc_begin13 # >> Call Site 9 <<
	.uleb128 .Ltmp220-.Ltmp213      #   Call between .Ltmp213 and .Ltmp220
	.uleb128 .Ltmp245-.Lfunc_begin13 #     jumps to .Ltmp245
	.byte	0                       #   On action: cleanup
	.uleb128 .Ltmp178-.Lfunc_begin13 # >> Call Site 10 <<
	.uleb128 .Ltmp224-.Ltmp178      #   Call between .Ltmp178 and .Ltmp224
	.uleb128 .Ltmp399-.Lfunc_begin13 #     jumps to .Ltmp399
	.byte	0                       #   On action: cleanup
	.uleb128 .Ltmp224-.Lfunc_begin13 # >> Call Site 11 <<
	.uleb128 .Lfunc_end85-.Ltmp224  #   Call between .Ltmp224 and .Lfunc_end85
	.byte	0                       #     has no landing pad
	.byte	0                       #   On action: cleanup
.Lcst_end13:
	.p2align	2
                                        # -- End function
	.section	.rodata.cst4,"aM",@progbits,4
	.p2align	2               # -- Begin function _ZN5Plane11frameUpdateEd
.LCPI86_0:
	.long	1084227584              # float 5
.LCPI86_1:
	.long	3247439872              # float -18
	.text
	.globl	_ZN5Plane11frameUpdateEd
	.p2align	4, 0x90
	.type	_ZN5Plane11frameUpdateEd,@function
_ZN5Plane11frameUpdateEd:               # @_ZN5Plane11frameUpdateEd
.Lfunc_begin14:
	.cfi_startproc
	.cfi_personality 155, DW.ref.__gxx_personality_v0
	.cfi_lsda 27, .Lexception14
# %bb.0:
	pushq	%rbp
	.cfi_def_cfa_offset 16
	.cfi_offset %rbp, -16
	movq	%rsp, %rbp
	.cfi_def_cfa_register %rbp
	subq	$384, %rsp              # imm = 0x180
	movq	%fs:40, %rax
	movq	%rax, -8(%rbp)
	movq	%rdi, -184(%rbp)
	vmovsd	%xmm0, -192(%rbp)
	movq	-184(%rbp), %rax
	testb	$1, 1472(%rax)
	movq	%rax, -256(%rbp)        # 8-byte Spill
	jne	.LBB86_7
# %bb.1:
	movq	-256(%rbp), %rax        # 8-byte Reload
	addq	$1104, %rax             # imm = 0x450
	movq	-256(%rbp), %rcx        # 8-byte Reload
	addq	$1112, %rcx             # imm = 0x458
	movq	-256(%rbp), %rdi        # 8-byte Reload
	movq	%rax, -264(%rbp)        # 8-byte Spill
	movq	%rcx, -272(%rbp)        # 8-byte Spill
	callq	_ZNK2sf13Transformable11getPositionEv@PLT
	vmovss	(%rax), %xmm0           # xmm0 = mem[0],zero,zero,zero
	vmovss	.LCPI86_0(%rip), %xmm1  # xmm1 = mem[0],zero,zero,zero
	vaddss	%xmm1, %xmm0, %xmm0
	movq	-256(%rbp), %rdi        # 8-byte Reload
	vmovss	%xmm0, -276(%rbp)       # 4-byte Spill
	callq	_ZNK2sf13Transformable11getPositionEv@PLT
	vmovss	4(%rax), %xmm0          # xmm0 = mem[0],zero,zero,zero
	movq	-256(%rbp), %rdi        # 8-byte Reload
	vmovss	%xmm0, -280(%rbp)       # 4-byte Spill
	callq	_ZN14ITransformable7getSizeEv@PLT
	movl	4(%rax), %edx
	movl	%edx, %eax
                                        # implicit-def: $xmm0
	vcvtsi2ss	%rax, %xmm0, %xmm0
	vmovss	-280(%rbp), %xmm1       # 4-byte Reload
